
/home/p/Documents/GitHub/stmApp/build/bootPilot.elf:     file format elf32-littlearm

SYMBOL TABLE:
08000000 l    d  .isr_vector	00000000 .isr_vector
080000c4 l    d  .text	00000000 .text
20000000 l    d  .data	00000000 .data
20000004 l    d  .bss	00000000 .bss
00000000 l    d  .comment	00000000 .comment
00000000 l    d  .ARM.attributes	00000000 .ARM.attributes
00000000 l    d  .debug_aranges	00000000 .debug_aranges
00000000 l    d  .debug_info	00000000 .debug_info
00000000 l    d  .debug_abbrev	00000000 .debug_abbrev
00000000 l    d  .debug_line	00000000 .debug_line
00000000 l    d  .debug_frame	00000000 .debug_frame
00000000 l    d  .debug_str	00000000 .debug_str
00000000 l    d  .debug_loc	00000000 .debug_loc
00000000 l    d  .debug_ranges	00000000 .debug_ranges
00000000 l    df *ABS*	00000000 CMakeFiles/bootPilot.dir/Device/startup_stm32f0xx.s.obj
f108f85f l       *ABS*	00000000 BootRAM
080009c0 l       .text	00000000 LoopCopyDataInit
080009b8 l       .text	00000000 CopyDataInit
080009d4 l       .text	00000000 LoopFillZerobss
080009ce l       .text	00000000 FillZerobss
080009e6 l       .text	00000000 LoopForever
08000a00 l       .text	00000000 Infinite_Loop
00000000 l    df *ABS*	00000000 _thumb1_case_uhi.o
00000000 l    df *ABS*	00000000 _udivsi3.o
080000d8 l       .text	00000000 .udivsi3_skip_div0_test
00000000 l    df *ABS*	00000000 _dvmd_tls.o
00000000 l    df *ABS*	00000000 main.c
00000000 l    df *ABS*	00000000 BSP.c
20000004 l     O .bss	00000024 gIF
00000000 l    df *ABS*	00000000 CRC.c
00000000 l    df *ABS*	00000000 Flash.c
20000028 l     O .bss	0000000c FlashSettings
00000000 l    df *ABS*	00000000 Protocol.c
20000034 l     O .bss	00000004 AppData
20000038 l     O .bss	00000002 Command
2000003a l     O .bss	00000044 Payload
2000007e l     O .bss	00000002 pktCounter.4666
20000080 l     O .bss	00000001 stateNext.4665
20000081 l     O .bss	00000001 stateNow.4664
20000084 l     O .bss	00000004 stickyTimer.4669
20000088 l     O .bss	00000004 tickCounter.4668
00000000 l    df *ABS*	00000000 Usart1.c
2000008c l     O .bss	00000004 Baud
20000090 l     O .bss	00000004 RxPin
20000094 l     O .bss	00000004 TxPin
20000098 l     O .bss	00000002 index
2000009c l     O .bss	00000004 pGPIO_USART
00000000 l    df *ABS*	00000000 system_stm32f0xx.c
00000000 l    df *ABS*	00000000 init.c
00000000 l    df *ABS*	00000000 /home/p/gcc-arm-none-eabi-7-2018-q2-update/bin/../lib/gcc/arm-none-eabi/7.3.1/thumb/v6-m/crti.o
00000000 l    df *ABS*	00000000 /home/p/gcc-arm-none-eabi-7-2018-q2-update/bin/../lib/gcc/arm-none-eabi/7.3.1/thumb/v6-m/crtn.o
08000308 g     F .text	000000ac FlashWrite
08000a00  w    F .text	00000002 TIM1_CC_IRQHandler
08000954 g     F .text	00000024 Usart1Send
08000a00  w    F .text	00000002 HardFault_Handler
08000a00  w    F .text	00000002 ADC1_COMP_IRQHandler
08000a00  w    F .text	00000002 SysTick_Handler
08000a00  w    F .text	00000002 PVD_IRQHandler
08000b3c g       .text	00000000 _sidata
08000a00  w    F .text	00000002 PendSV_Handler
08000a00  w    F .text	00000002 NMI_Handler
200000a0 g       .bss	00000000 __exidx_end
08000a00  w    F .text	00000002 I2C1_IRQHandler
08000b3c g       .text	00000000 _etext
20000004 g       .bss	00000000 _sbss
20000000 g     O .data	00000004 SystemCoreClock
080000d8 g     F .text	0000010a .hidden __udivsi3
20000000 g       .data	00000000 _sdata
08000a00  w    F .text	00000002 SPI1_IRQHandler
08000a00  w    F .text	00000002 TIM6_DAC_IRQHandler
080009a4 g     F .text	0000000c Usart1Reset
200000a0 g       .bss	00000000 __exidx_start
08000ac4 g     F .text	00000048 __libc_init_array
08000a00  w    F .text	00000002 EXTI2_3_IRQHandler
08000b24 g     F .text	00000000 _init
08000a00  w    F .text	00000002 I2C2_IRQHandler
080002d4 g     F .text	00000034 FlashInit
08000a00  w    F .text	00000002 TIM17_IRQHandler
08000a00  w    F .text	00000002 RTC_IRQHandler
200000a0 g       .bss	00000000 _ebss
080009b0  w    F .text	00000038 Reset_Handler
08000450 g     F .text	00000010 FlashLock
08000a00  w    F .text	00000002 TIM16_IRQHandler
08000a00  w    F .text	00000002 TIM3_IRQHandler
08000a00  w    F .text	00000002 EXTI4_15_IRQHandler
08000a00  w    F .text	00000002 RCC_IRQHandler
20000004 g       .bss	00000000 _bss
08000a00  w    F .text	00000002 DMA1_Channel1_IRQHandler
08000a00 g       .text	00000002 Default_Handler
08000b12 g     O .text	00000010 AHBPrescTable
08000a00  w    F .text	00000002 CEC_IRQHandler
08000a00  w    F .text	00000002 TIM14_IRQHandler
08000a00  w    F .text	00000002 DMA1_Channel4_5_IRQHandler
08000a00  w    F .text	00000002 TIM15_IRQHandler
08000a00  w    F .text	00000002 EXTI0_1_IRQHandler
080001ec  w    F .text	00000002 .hidden __aeabi_ldiv0
08000570 g     F .text	000002a8 ProtocolSM_Run
08000a00  w    F .text	00000002 SPI2_IRQHandler
080003b4 g     F .text	0000009c FlashErase
080001f0 g     F .text	00000010 main
0800028c g     F .text	00000048 CRCCalc16
080000d8 g     F .text	00000000 .hidden __aeabi_uidiv
08000a00  w    F .text	00000002 SVC_Handler
08000a04 g     F .text	00000060 SystemInit
08000b30 g     F .text	00000000 _fini
080004fc g     F .text	00000074 FlashVerifyFirmware
08000a00  w    F .text	00000002 TS_IRQHandler
08000a00  w    F .text	00000002 WWDG_IRQHandler
20000000 g       .data	00000000 _data
08000a00  w    F .text	00000002 TIM2_IRQHandler
08000460 g     F .text	0000009c FlashWriteFWParam
08000a00  w    F .text	00000002 DMA1_Channel2_3_IRQHandler
20004000 g       *ABS*	00000000 _estack
080001e4 g     F .text	00000008 .hidden __aeabi_uidivmod
08000818 g     F .text	0000013c Usart1Init
20000004 g       .data	00000000 _edata
08000978 g     F .text	0000002c Usart1Recv
08000a00  w    F .text	00000002 USART2_IRQHandler
08000000 g     O .isr_vector	00000000 g_pfnVectors
08000a64 g     F .text	00000060 SystemCoreClockUpdate
080001ec  w    F .text	00000002 .hidden __aeabi_idiv0
08000200 g     F .text	0000008c BSP_Init
08000a00  w    F .text	00000002 FLASH_IRQHandler
08000a00  w    F .text	00000002 USART1_IRQHandler
08000a00  w    F .text	00000002 TIM1_BRK_UP_TRG_COM_IRQHandler
080000c4 g     F .text	00000014 .hidden __gnu_thumb1_case_uhi



Disassembly of section .text:

080000c4 <__gnu_thumb1_case_uhi>:
 80000c4:	b403      	push	{r0, r1}
 80000c6:	4671      	mov	r1, lr
 80000c8:	0849      	lsrs	r1, r1, #1
 80000ca:	0040      	lsls	r0, r0, #1
 80000cc:	0049      	lsls	r1, r1, #1
 80000ce:	5a09      	ldrh	r1, [r1, r0]
 80000d0:	0049      	lsls	r1, r1, #1
 80000d2:	448e      	add	lr, r1
 80000d4:	bc03      	pop	{r0, r1}
 80000d6:	4770      	bx	lr

080000d8 <__udivsi3>:
 80000d8:	2200      	movs	r2, #0
 80000da:	0843      	lsrs	r3, r0, #1
 80000dc:	428b      	cmp	r3, r1
 80000de:	d374      	bcc.n	80001ca <__udivsi3+0xf2>
 80000e0:	0903      	lsrs	r3, r0, #4
 80000e2:	428b      	cmp	r3, r1
 80000e4:	d35f      	bcc.n	80001a6 <__udivsi3+0xce>
 80000e6:	0a03      	lsrs	r3, r0, #8
 80000e8:	428b      	cmp	r3, r1
 80000ea:	d344      	bcc.n	8000176 <__udivsi3+0x9e>
 80000ec:	0b03      	lsrs	r3, r0, #12
 80000ee:	428b      	cmp	r3, r1
 80000f0:	d328      	bcc.n	8000144 <__udivsi3+0x6c>
 80000f2:	0c03      	lsrs	r3, r0, #16
 80000f4:	428b      	cmp	r3, r1
 80000f6:	d30d      	bcc.n	8000114 <__udivsi3+0x3c>
 80000f8:	22ff      	movs	r2, #255	; 0xff
 80000fa:	0209      	lsls	r1, r1, #8
 80000fc:	ba12      	rev	r2, r2
 80000fe:	0c03      	lsrs	r3, r0, #16
 8000100:	428b      	cmp	r3, r1
 8000102:	d302      	bcc.n	800010a <__udivsi3+0x32>
 8000104:	1212      	asrs	r2, r2, #8
 8000106:	0209      	lsls	r1, r1, #8
 8000108:	d065      	beq.n	80001d6 <__udivsi3+0xfe>
 800010a:	0b03      	lsrs	r3, r0, #12
 800010c:	428b      	cmp	r3, r1
 800010e:	d319      	bcc.n	8000144 <__udivsi3+0x6c>
 8000110:	e000      	b.n	8000114 <__udivsi3+0x3c>
 8000112:	0a09      	lsrs	r1, r1, #8
 8000114:	0bc3      	lsrs	r3, r0, #15
 8000116:	428b      	cmp	r3, r1
 8000118:	d301      	bcc.n	800011e <__udivsi3+0x46>
 800011a:	03cb      	lsls	r3, r1, #15
 800011c:	1ac0      	subs	r0, r0, r3
 800011e:	4152      	adcs	r2, r2
 8000120:	0b83      	lsrs	r3, r0, #14
 8000122:	428b      	cmp	r3, r1
 8000124:	d301      	bcc.n	800012a <__udivsi3+0x52>
 8000126:	038b      	lsls	r3, r1, #14
 8000128:	1ac0      	subs	r0, r0, r3
 800012a:	4152      	adcs	r2, r2
 800012c:	0b43      	lsrs	r3, r0, #13
 800012e:	428b      	cmp	r3, r1
 8000130:	d301      	bcc.n	8000136 <__udivsi3+0x5e>
 8000132:	034b      	lsls	r3, r1, #13
 8000134:	1ac0      	subs	r0, r0, r3
 8000136:	4152      	adcs	r2, r2
 8000138:	0b03      	lsrs	r3, r0, #12
 800013a:	428b      	cmp	r3, r1
 800013c:	d301      	bcc.n	8000142 <__udivsi3+0x6a>
 800013e:	030b      	lsls	r3, r1, #12
 8000140:	1ac0      	subs	r0, r0, r3
 8000142:	4152      	adcs	r2, r2
 8000144:	0ac3      	lsrs	r3, r0, #11
 8000146:	428b      	cmp	r3, r1
 8000148:	d301      	bcc.n	800014e <__udivsi3+0x76>
 800014a:	02cb      	lsls	r3, r1, #11
 800014c:	1ac0      	subs	r0, r0, r3
 800014e:	4152      	adcs	r2, r2
 8000150:	0a83      	lsrs	r3, r0, #10
 8000152:	428b      	cmp	r3, r1
 8000154:	d301      	bcc.n	800015a <__udivsi3+0x82>
 8000156:	028b      	lsls	r3, r1, #10
 8000158:	1ac0      	subs	r0, r0, r3
 800015a:	4152      	adcs	r2, r2
 800015c:	0a43      	lsrs	r3, r0, #9
 800015e:	428b      	cmp	r3, r1
 8000160:	d301      	bcc.n	8000166 <__udivsi3+0x8e>
 8000162:	024b      	lsls	r3, r1, #9
 8000164:	1ac0      	subs	r0, r0, r3
 8000166:	4152      	adcs	r2, r2
 8000168:	0a03      	lsrs	r3, r0, #8
 800016a:	428b      	cmp	r3, r1
 800016c:	d301      	bcc.n	8000172 <__udivsi3+0x9a>
 800016e:	020b      	lsls	r3, r1, #8
 8000170:	1ac0      	subs	r0, r0, r3
 8000172:	4152      	adcs	r2, r2
 8000174:	d2cd      	bcs.n	8000112 <__udivsi3+0x3a>
 8000176:	09c3      	lsrs	r3, r0, #7
 8000178:	428b      	cmp	r3, r1
 800017a:	d301      	bcc.n	8000180 <__udivsi3+0xa8>
 800017c:	01cb      	lsls	r3, r1, #7
 800017e:	1ac0      	subs	r0, r0, r3
 8000180:	4152      	adcs	r2, r2
 8000182:	0983      	lsrs	r3, r0, #6
 8000184:	428b      	cmp	r3, r1
 8000186:	d301      	bcc.n	800018c <__udivsi3+0xb4>
 8000188:	018b      	lsls	r3, r1, #6
 800018a:	1ac0      	subs	r0, r0, r3
 800018c:	4152      	adcs	r2, r2
 800018e:	0943      	lsrs	r3, r0, #5
 8000190:	428b      	cmp	r3, r1
 8000192:	d301      	bcc.n	8000198 <__udivsi3+0xc0>
 8000194:	014b      	lsls	r3, r1, #5
 8000196:	1ac0      	subs	r0, r0, r3
 8000198:	4152      	adcs	r2, r2
 800019a:	0903      	lsrs	r3, r0, #4
 800019c:	428b      	cmp	r3, r1
 800019e:	d301      	bcc.n	80001a4 <__udivsi3+0xcc>
 80001a0:	010b      	lsls	r3, r1, #4
 80001a2:	1ac0      	subs	r0, r0, r3
 80001a4:	4152      	adcs	r2, r2
 80001a6:	08c3      	lsrs	r3, r0, #3
 80001a8:	428b      	cmp	r3, r1
 80001aa:	d301      	bcc.n	80001b0 <__udivsi3+0xd8>
 80001ac:	00cb      	lsls	r3, r1, #3
 80001ae:	1ac0      	subs	r0, r0, r3
 80001b0:	4152      	adcs	r2, r2
 80001b2:	0883      	lsrs	r3, r0, #2
 80001b4:	428b      	cmp	r3, r1
 80001b6:	d301      	bcc.n	80001bc <__udivsi3+0xe4>
 80001b8:	008b      	lsls	r3, r1, #2
 80001ba:	1ac0      	subs	r0, r0, r3
 80001bc:	4152      	adcs	r2, r2
 80001be:	0843      	lsrs	r3, r0, #1
 80001c0:	428b      	cmp	r3, r1
 80001c2:	d301      	bcc.n	80001c8 <__udivsi3+0xf0>
 80001c4:	004b      	lsls	r3, r1, #1
 80001c6:	1ac0      	subs	r0, r0, r3
 80001c8:	4152      	adcs	r2, r2
 80001ca:	1a41      	subs	r1, r0, r1
 80001cc:	d200      	bcs.n	80001d0 <__udivsi3+0xf8>
 80001ce:	4601      	mov	r1, r0
 80001d0:	4152      	adcs	r2, r2
 80001d2:	4610      	mov	r0, r2
 80001d4:	4770      	bx	lr
 80001d6:	e7ff      	b.n	80001d8 <__udivsi3+0x100>
 80001d8:	b501      	push	{r0, lr}
 80001da:	2000      	movs	r0, #0
 80001dc:	f000 f806 	bl	80001ec <__aeabi_idiv0>
 80001e0:	bd02      	pop	{r1, pc}
 80001e2:	46c0      	nop			; (mov r8, r8)

080001e4 <__aeabi_uidivmod>:
 80001e4:	2900      	cmp	r1, #0
 80001e6:	d0f7      	beq.n	80001d8 <__udivsi3+0x100>
 80001e8:	e776      	b.n	80000d8 <__udivsi3>
 80001ea:	4770      	bx	lr

080001ec <__aeabi_idiv0>:
 80001ec:	4770      	bx	lr
 80001ee:	46c0      	nop			; (mov r8, r8)

080001f0 <main>:
/* *************** Modul global constants ( static const ) ********************/
/* **************** Local func/proc prototypes ( static ) *********************/
/******************************************************************************/

int main (void)
{
 80001f0:	b510      	push	{r4, lr}
    tBSPStruct* pBSP = BSP_Init();
 80001f2:	f000 f805 	bl	8000200 <BSP_Init>
 80001f6:	0004      	movs	r4, r0

    for (;;)
    {
        ProtocolSM_Run(pBSP);
 80001f8:	0020      	movs	r0, r4
 80001fa:	f000 f9b9 	bl	8000570 <ProtocolSM_Run>
 80001fe:	e7fb      	b.n	80001f8 <main+0x8>

08000200 <BSP_Init>:
* @brief Initialize target based bsp options
* @returns pointer to structure with which protocol state machine can work
*
*******************************************************************************/
tBSPStruct* BSP_Init(void)
{
 8000200:	b510      	push	{r4, lr}
    gIF.pInit           = NULL;
    gIF.pSend           = NULL;
    gIF.pRecv           = NULL;
    gIF.pReset          = NULL;

    gIF.BootTimeoutTicks= BootTIMEOUT;
 8000202:	4b18      	ldr	r3, [pc, #96]	; (8000264 <BSP_Init+0x64>)
 8000204:	4c18      	ldr	r4, [pc, #96]	; (8000268 <BSP_Init+0x68>)
 8000206:	6163      	str	r3, [r4, #20]
    gIF.AppStartTicks   = BootTIMEOUT - 100000UL;
 8000208:	4b18      	ldr	r3, [pc, #96]	; (800026c <BSP_Init+0x6c>)
 800020a:	61a3      	str	r3, [r4, #24]
    gIF.CommDoneTicks   = 10000UL;
 800020c:	4b18      	ldr	r3, [pc, #96]	; (8000270 <BSP_Init+0x70>)
 800020e:	61e3      	str	r3, [r4, #28]
    gIF.TwoBytesTicks   = 300UL;
 8000210:	2396      	movs	r3, #150	; 0x96
 8000212:	005b      	lsls	r3, r3, #1
 8000214:	6223      	str	r3, [r4, #32]

#if defined (SELECT_TORQUE)
    gIF.BSP_Type = BSP_TorqueSensor;
    #warning Torque Sensor is selected
#elif defined (SELECT_PILOT)
    gIF.BSP_Type = BSP_Pilot;
 8000216:	3b2c      	subs	r3, #44	; 0x2c
 8000218:	3bff      	subs	r3, #255	; 0xff
 800021a:	7023      	strb	r3, [r4, #0]
    }
#endif
    switch (gIF.BSP_Type)
    {
        case BSP_Pilot:
            gIF.pInit   = &Usart1Init;
 800021c:	4b15      	ldr	r3, [pc, #84]	; (8000274 <BSP_Init+0x74>)
 800021e:	6063      	str	r3, [r4, #4]
            gIF.pSend   = &Usart1Send;
 8000220:	4b15      	ldr	r3, [pc, #84]	; (8000278 <BSP_Init+0x78>)
 8000222:	60a3      	str	r3, [r4, #8]
            gIF.pRecv   = &Usart1Recv;
 8000224:	4b15      	ldr	r3, [pc, #84]	; (800027c <BSP_Init+0x7c>)
 8000226:	60e3      	str	r3, [r4, #12]
            gIF.pReset  = &Usart1Reset;
 8000228:	4b15      	ldr	r3, [pc, #84]	; (8000280 <BSP_Init+0x80>)
 800022a:	6123      	str	r3, [r4, #16]

    /* Let's update the global SystemCoreClock variable just in case the system
     * frequency has changed. Mandatory for calculations of delay for bootloader
     * timeouts that are solely dependent on system ticks
     */
    SystemCoreClockUpdate();
 800022c:	f000 fc1a 	bl	8000a64 <SystemCoreClockUpdate>
    /* Now calculate by what factor has the system changed it's core clock */
    uint32_t temp_u32 = ( SystemCoreClock / BSP_ALLBOARD_HSI_FREQUENCY );
 8000230:	4b14      	ldr	r3, [pc, #80]	; (8000284 <BSP_Init+0x84>)
 8000232:	4915      	ldr	r1, [pc, #84]	; (8000288 <BSP_Init+0x88>)
 8000234:	6818      	ldr	r0, [r3, #0]
 8000236:	f7ff ff4f 	bl	80000d8 <__udivsi3>

    gIF.AppStartTicks     *= temp_u32;
 800023a:	69a3      	ldr	r3, [r4, #24]
 800023c:	4343      	muls	r3, r0
 800023e:	61a3      	str	r3, [r4, #24]
    gIF.CommDoneTicks     *= temp_u32;
 8000240:	69e3      	ldr	r3, [r4, #28]
 8000242:	4343      	muls	r3, r0
 8000244:	61e3      	str	r3, [r4, #28]
    gIF.BootTimeoutTicks  *= temp_u32;
 8000246:	6963      	ldr	r3, [r4, #20]
 8000248:	4343      	muls	r3, r0
 800024a:	6163      	str	r3, [r4, #20]
    gIF.TwoBytesTicks     *= temp_u32;
 800024c:	6a23      	ldr	r3, [r4, #32]
 800024e:	4358      	muls	r0, r3

    gIF.pInit(gIF.BSP_Type);
 8000250:	6863      	ldr	r3, [r4, #4]
    gIF.TwoBytesTicks     *= temp_u32;
 8000252:	6220      	str	r0, [r4, #32]
    gIF.pInit(gIF.BSP_Type);
 8000254:	7820      	ldrb	r0, [r4, #0]
 8000256:	4798      	blx	r3

    FlashInit(gIF.BSP_Type);
 8000258:	7820      	ldrb	r0, [r4, #0]
 800025a:	f000 f83b 	bl	80002d4 <FlashInit>

    return (&gIF);
}
 800025e:	0020      	movs	r0, r4
 8000260:	bd10      	pop	{r4, pc}
 8000262:	46c0      	nop			; (mov r8, r8)
 8000264:	000493e0 	.word	0x000493e0
 8000268:	20000004 	.word	0x20000004
 800026c:	00030d40 	.word	0x00030d40
 8000270:	00002710 	.word	0x00002710
 8000274:	08000819 	.word	0x08000819
 8000278:	08000955 	.word	0x08000955
 800027c:	08000979 	.word	0x08000979
 8000280:	080009a5 	.word	0x080009a5
 8000284:	20000000 	.word	0x20000000
 8000288:	007a1200 	.word	0x007a1200

0800028c <CRCCalc16>:
* @param[in] size byte number of the array
* @param[in] startVal start value of the CRC calculation
* @returns   calculated 16 bits CRC.
*******************************************************************************/
uint16_t CRCCalc16(const uint8_t *data, uint16_t size, uint16_t startVal)
{
 800028c:	b5f0      	push	{r4, r5, r6, r7, lr}
    uint16_t out = startVal;
    uint8_t bits_read = 0, bit_flag;
    /* Sanity check */
    if (data == NULL)
 800028e:	2800      	cmp	r0, #0
 8000290:	d01c      	beq.n	80002cc <CRCCalc16+0x40>
    uint8_t bits_read = 0, bit_flag;
 8000292:	2300      	movs	r3, #0
            size--;
        }
        /* Cycle check */
        if (bit_flag)
        {
            out ^= CRC16;
 8000294:	4e0e      	ldr	r6, [pc, #56]	; (80002d0 <CRCCalc16+0x44>)
    while (size > 0)
 8000296:	2900      	cmp	r1, #0
 8000298:	d101      	bne.n	800029e <CRCCalc16+0x12>
        }
    }
    return out;
}
 800029a:	0010      	movs	r0, r2
 800029c:	bdf0      	pop	{r4, r5, r6, r7, pc}
        out |= (*data >> (7 - bits_read)) & 1;
 800029e:	2507      	movs	r5, #7
 80002a0:	7804      	ldrb	r4, [r0, #0]
 80002a2:	1aed      	subs	r5, r5, r3
 80002a4:	412c      	asrs	r4, r5
 80002a6:	2501      	movs	r5, #1
        bit_flag = out >> 15;
 80002a8:	0bd7      	lsrs	r7, r2, #15
        out <<= 1;
 80002aa:	40aa      	lsls	r2, r5
        out |= (*data >> (7 - bits_read)) & 1;
 80002ac:	402c      	ands	r4, r5
        bits_read++;
 80002ae:	195b      	adds	r3, r3, r5
        out |= (*data >> (7 - bits_read)) & 1;
 80002b0:	4322      	orrs	r2, r4
        bits_read++;
 80002b2:	b2db      	uxtb	r3, r3
        out |= (*data >> (7 - bits_read)) & 1;
 80002b4:	b292      	uxth	r2, r2
        if (bits_read > 7)
 80002b6:	2b07      	cmp	r3, #7
 80002b8:	d903      	bls.n	80002c2 <CRCCalc16+0x36>
            bits_read = 0;
 80002ba:	2300      	movs	r3, #0
            size--;
 80002bc:	3901      	subs	r1, #1
            data++;
 80002be:	1940      	adds	r0, r0, r5
            size--;
 80002c0:	b289      	uxth	r1, r1
        if (bit_flag)
 80002c2:	2f00      	cmp	r7, #0
 80002c4:	d0e7      	beq.n	8000296 <CRCCalc16+0xa>
            out ^= CRC16;
 80002c6:	4072      	eors	r2, r6
 80002c8:	b292      	uxth	r2, r2
 80002ca:	e7e4      	b.n	8000296 <CRCCalc16+0xa>
        return 0;
 80002cc:	0002      	movs	r2, r0
 80002ce:	e7e4      	b.n	800029a <CRCCalc16+0xe>
 80002d0:	ffffaa55 	.word	0xffffaa55

080002d4 <FlashInit>:
* All boards other than Pilot have identical flash sizes.
* @param[in] BSPtype is passed to select the flash memory size
*
*******************************************************************************/
void FlashInit(tBSPType BSPType)
{
 80002d4:	4b07      	ldr	r3, [pc, #28]	; (80002f4 <FlashInit+0x20>)
    if (BSPType == BSP_Pilot)
 80002d6:	2801      	cmp	r0, #1
 80002d8:	d106      	bne.n	80002e8 <FlashInit+0x14>
    {
        FlashSettings.CRCinFlash = BSP_ABSOLUTE_FLASH_END_16KB - 4UL;
 80002da:	4a07      	ldr	r2, [pc, #28]	; (80002f8 <FlashInit+0x24>)
 80002dc:	601a      	str	r2, [r3, #0]
        FlashSettings.LENinFlash = BSP_ABSOLUTE_FLASH_END_16KB - 2UL;
 80002de:	4a07      	ldr	r2, [pc, #28]	; (80002fc <FlashInit+0x28>)
 80002e0:	605a      	str	r2, [r3, #4]
        FlashSettings.TOTALPages = BSP_APP_PROGRAM_PAGES_16KB;
 80002e2:	220c      	movs	r2, #12
    }else
    {
        FlashSettings.CRCinFlash = BSP_ABSOLUTE_FLASH_END_32KB - 4UL;
        FlashSettings.LENinFlash = BSP_ABSOLUTE_FLASH_END_32KB - 2UL;
        FlashSettings.TOTALPages = BSP_APP_PROGRAM_PAGES_32KB;
 80002e4:	609a      	str	r2, [r3, #8]
    }
}
 80002e6:	4770      	bx	lr
        FlashSettings.CRCinFlash = BSP_ABSOLUTE_FLASH_END_32KB - 4UL;
 80002e8:	4a05      	ldr	r2, [pc, #20]	; (8000300 <FlashInit+0x2c>)
 80002ea:	601a      	str	r2, [r3, #0]
        FlashSettings.LENinFlash = BSP_ABSOLUTE_FLASH_END_32KB - 2UL;
 80002ec:	4a05      	ldr	r2, [pc, #20]	; (8000304 <FlashInit+0x30>)
 80002ee:	605a      	str	r2, [r3, #4]
        FlashSettings.TOTALPages = BSP_APP_PROGRAM_PAGES_32KB;
 80002f0:	221c      	movs	r2, #28
 80002f2:	e7f7      	b.n	80002e4 <FlashInit+0x10>
 80002f4:	20000028 	.word	0x20000028
 80002f8:	08003ffc 	.word	0x08003ffc
 80002fc:	08003ffe 	.word	0x08003ffe
 8000300:	08007ffc 	.word	0x08007ffc
 8000304:	08007ffe 	.word	0x08007ffe

08000308 <FlashWrite>:
*            or
*            0 if an error occurs.
*
*******************************************************************************/
uint8_t FlashWrite(uint8_t* buf, const uint16_t size, const uint16_t pktNo)
{
 8000308:	b5f7      	push	{r0, r1, r2, r4, r5, r6, r7, lr}
    uint16_t* p16 = (uint16_t *)(BSP_ABSOLUTE_APP_START + (pktNo * size));
    /**
     *    Size should be a non zero number less than 1025 and should be a multiple
     *     of two since we write 2 bytes.
     */
    if ((size > 1024UL) || (size == 0) || (buf == NULL))
 800030a:	4b25      	ldr	r3, [pc, #148]	; (80003a0 <FlashWrite+0x98>)
 800030c:	1e4d      	subs	r5, r1, #1
 800030e:	b2ad      	uxth	r5, r5
 8000310:	429d      	cmp	r5, r3
 8000312:	d830      	bhi.n	8000376 <FlashWrite+0x6e>
 8000314:	2800      	cmp	r0, #0
 8000316:	d02e      	beq.n	8000376 <FlashWrite+0x6e>
    {
        return 0;
    }
    // Program Flash Page
    FLASH->SR |= FLASH_SR_PGERR | FLASH_SR_WRPRTERR;
 8000318:	2714      	movs	r7, #20
    uint16_t* p16 = (uint16_t *)(BSP_ABSOLUTE_APP_START + (pktNo * size));
 800031a:	4351      	muls	r1, r2
 800031c:	4b21      	ldr	r3, [pc, #132]	; (80003a4 <FlashWrite+0x9c>)
                /** Return if the busy wait timer expires */
                return 0;
            }
        }
        FLASH->CR &= ~FLASH_CR_PG;
        if ((FLASH->SR & (FLASH_SR_PGERR | FLASH_SR_WRPRTERR)) != 0)
 800031e:	46bc      	mov	ip, r7
    uint16_t* p16 = (uint16_t *)(BSP_ABSOLUTE_APP_START + (pktNo * size));
 8000320:	18cc      	adds	r4, r1, r3
    FLASH->SR |= FLASH_SR_PGERR | FLASH_SR_WRPRTERR;
 8000322:	4b21      	ldr	r3, [pc, #132]	; (80003a8 <FlashWrite+0xa0>)
 8000324:	68da      	ldr	r2, [r3, #12]
 8000326:	433a      	orrs	r2, r7
 8000328:	60da      	str	r2, [r3, #12]
 800032a:	086a      	lsrs	r2, r5, #1
 800032c:	0052      	lsls	r2, r2, #1
 800032e:	1852      	adds	r2, r2, r1
 8000330:	491e      	ldr	r1, [pc, #120]	; (80003ac <FlashWrite+0xa4>)
    uint16_t* p16 = (uint16_t *)(BSP_ABSOLUTE_APP_START + (pktNo * size));
 8000332:	0025      	movs	r5, r4
 8000334:	1852      	adds	r2, r2, r1
 8000336:	9201      	str	r2, [sp, #4]
    FLASH->SR |= FLASH_SR_PGERR | FLASH_SR_WRPRTERR;
 8000338:	0002      	movs	r2, r0
        FLASH->CR |= FLASH_CR_PG;
 800033a:	2601      	movs	r6, #1
 800033c:	6919      	ldr	r1, [r3, #16]
 800033e:	4331      	orrs	r1, r6
 8000340:	6119      	str	r1, [r3, #16]
        *p16++ = (uint16_t)(buf[i+1] << 8) | buf[i];
 8000342:	7857      	ldrb	r7, [r2, #1]
 8000344:	7816      	ldrb	r6, [r2, #0]
 8000346:	023f      	lsls	r7, r7, #8
 8000348:	4337      	orrs	r7, r6
 800034a:	802f      	strh	r7, [r5, #0]
        while ((FLASH->SR & FLASH_SR_BSY) != 0)
 800034c:	4f18      	ldr	r7, [pc, #96]	; (80003b0 <FlashWrite+0xa8>)
        *p16++ = (uint16_t)(buf[i+1] << 8) | buf[i];
 800034e:	1ca9      	adds	r1, r5, #2
        while ((FLASH->SR & FLASH_SR_BSY) != 0)
 8000350:	2601      	movs	r6, #1
 8000352:	68dd      	ldr	r5, [r3, #12]
 8000354:	4035      	ands	r5, r6
 8000356:	d10b      	bne.n	8000370 <FlashWrite+0x68>
        FLASH->CR &= ~FLASH_CR_PG;
 8000358:	691f      	ldr	r7, [r3, #16]
 800035a:	43b7      	bics	r7, r6
        if ((FLASH->SR & (FLASH_SR_PGERR | FLASH_SR_WRPRTERR)) != 0)
 800035c:	4666      	mov	r6, ip
        FLASH->CR &= ~FLASH_CR_PG;
 800035e:	611f      	str	r7, [r3, #16]
        if ((FLASH->SR & (FLASH_SR_PGERR | FLASH_SR_WRPRTERR)) != 0)
 8000360:	68df      	ldr	r7, [r3, #12]
 8000362:	4237      	tst	r7, r6
 8000364:	d009      	beq.n	800037a <FlashWrite+0x72>
        {
            FLASH->SR |= FLASH_SR_PGERR | FLASH_SR_WRPRTERR;
 8000366:	4661      	mov	r1, ip
 8000368:	68da      	ldr	r2, [r3, #12]
 800036a:	4311      	orrs	r1, r2
 800036c:	60d9      	str	r1, [r3, #12]
 800036e:	e002      	b.n	8000376 <FlashWrite+0x6e>
 8000370:	3f01      	subs	r7, #1
            if (0U == flashWait)
 8000372:	2f00      	cmp	r7, #0
 8000374:	d1ec      	bne.n	8000350 <FlashWrite+0x48>
        return 0;
 8000376:	2000      	movs	r0, #0
 8000378:	e011      	b.n	800039e <FlashWrite+0x96>
    while (i < size)
 800037a:	9e01      	ldr	r6, [sp, #4]
 800037c:	3202      	adds	r2, #2
 800037e:	000d      	movs	r5, r1
 8000380:	42b1      	cmp	r1, r6
 8000382:	d1da      	bne.n	800033a <FlashWrite+0x32>
    /** Lets verify flash if we have written correctly */
    i = 0;
    p16 = (uint16_t *)(BSP_ABSOLUTE_APP_START + (pktNo * size));
    while (i < size)
    {
        if (*p16++ != ((uint16_t)(buf[i+1] << 8) | buf[i]))
 8000384:	7843      	ldrb	r3, [r0, #1]
 8000386:	1ca2      	adds	r2, r4, #2
 8000388:	7805      	ldrb	r5, [r0, #0]
 800038a:	8824      	ldrh	r4, [r4, #0]
 800038c:	021b      	lsls	r3, r3, #8
 800038e:	432b      	orrs	r3, r5
 8000390:	429c      	cmp	r4, r3
 8000392:	d1f0      	bne.n	8000376 <FlashWrite+0x6e>
 8000394:	3002      	adds	r0, #2
 8000396:	0014      	movs	r4, r2
    while (i < size)
 8000398:	428a      	cmp	r2, r1
 800039a:	d1f3      	bne.n	8000384 <FlashWrite+0x7c>
        {
            return 0;
        }
        i += sizeof(uint16_t);
    }
    return 1;
 800039c:	2001      	movs	r0, #1
}
 800039e:	bdfe      	pop	{r1, r2, r3, r4, r5, r6, r7, pc}
 80003a0:	000003ff 	.word	0x000003ff
 80003a4:	08001000 	.word	0x08001000
 80003a8:	40022000 	.word	0x40022000
 80003ac:	08001002 	.word	0x08001002
 80003b0:	000493e0 	.word	0x000493e0

080003b4 <FlashErase>:
*            or
*            0 if an error occurs.
*
*******************************************************************************/
uint8_t FlashErase(void)
{
 80003b4:	b5f7      	push	{r0, r1, r2, r4, r5, r6, r7, lr}
    uint32_t flashAdr = (uint32_t)BSP_ABSOLUTE_APP_START;

    // Unlock Flash
    FLASH->KEYR = FLASH_KEY1;
    FLASH->KEYR = FLASH_KEY2;
    while ((FLASH->CR & FLASH_CR_LOCK) != 0)
 80003b6:	2080      	movs	r0, #128	; 0x80
    FLASH->KEYR = FLASH_KEY1;
 80003b8:	4b1f      	ldr	r3, [pc, #124]	; (8000438 <FlashErase+0x84>)
 80003ba:	4a20      	ldr	r2, [pc, #128]	; (800043c <FlashErase+0x88>)
    while ((FLASH->CR & FLASH_CR_LOCK) != 0)
 80003bc:	4920      	ldr	r1, [pc, #128]	; (8000440 <FlashErase+0x8c>)
    FLASH->KEYR = FLASH_KEY1;
 80003be:	605a      	str	r2, [r3, #4]
    FLASH->KEYR = FLASH_KEY2;
 80003c0:	4a20      	ldr	r2, [pc, #128]	; (8000444 <FlashErase+0x90>)
 80003c2:	605a      	str	r2, [r3, #4]
    while ((FLASH->CR & FLASH_CR_LOCK) != 0)
 80003c4:	691a      	ldr	r2, [r3, #16]
 80003c6:	4002      	ands	r2, r0
 80003c8:	d110      	bne.n	80003ec <FlashErase+0x38>
        if (0U == flashWait)
        {
            return 0;
        }
    }
    for (uint8_t i = 0; i < FlashSettings.TOTALPages; i++)
 80003ca:	491f      	ldr	r1, [pc, #124]	; (8000448 <FlashErase+0x94>)
    {
        FLASH->SR |= FLASH_SR_PGERR | FLASH_SR_WRPRTERR;
        FLASH->CR |= FLASH_CR_PER;
 80003cc:	2502      	movs	r5, #2
    for (uint8_t i = 0; i < FlashSettings.TOTALPages; i++)
 80003ce:	6889      	ldr	r1, [r1, #8]
        FLASH->AR = flashAdr;
        FLASH->CR |= FLASH_CR_STRT;
 80003d0:	2740      	movs	r7, #64	; 0x40
    for (uint8_t i = 0; i < FlashSettings.TOTALPages; i++)
 80003d2:	9101      	str	r1, [sp, #4]
        FLASH->SR |= FLASH_SR_PGERR | FLASH_SR_WRPRTERR;
 80003d4:	2114      	movs	r1, #20
    for (uint8_t i = 0; i < FlashSettings.TOTALPages; i++)
 80003d6:	26ff      	movs	r6, #255	; 0xff
 80003d8:	0014      	movs	r4, r2
 80003da:	481c      	ldr	r0, [pc, #112]	; (800044c <FlashErase+0x98>)
 80003dc:	4034      	ands	r4, r6
 80003de:	9e01      	ldr	r6, [sp, #4]
 80003e0:	1810      	adds	r0, r2, r0
 80003e2:	0280      	lsls	r0, r0, #10
 80003e4:	42a6      	cmp	r6, r4
 80003e6:	d806      	bhi.n	80003f6 <FlashErase+0x42>
            FLASH->SR |= FLASH_SR_PGERR | FLASH_SR_WRPRTERR;
            return 0;
        }
        flashAdr = flashAdr + BSP_FLASH_PAGE_SIZE_BYTES;
    }
    return 1;
 80003e8:	2001      	movs	r0, #1
 80003ea:	e003      	b.n	80003f4 <FlashErase+0x40>
 80003ec:	3901      	subs	r1, #1
        if (0U == flashWait)
 80003ee:	2900      	cmp	r1, #0
 80003f0:	d1e8      	bne.n	80003c4 <FlashErase+0x10>
            return 0;
 80003f2:	2000      	movs	r0, #0
}
 80003f4:	bdfe      	pop	{r1, r2, r3, r4, r5, r6, r7, pc}
        FLASH->SR |= FLASH_SR_PGERR | FLASH_SR_WRPRTERR;
 80003f6:	68dc      	ldr	r4, [r3, #12]
 80003f8:	430c      	orrs	r4, r1
 80003fa:	60dc      	str	r4, [r3, #12]
        FLASH->CR |= FLASH_CR_PER;
 80003fc:	691c      	ldr	r4, [r3, #16]
 80003fe:	432c      	orrs	r4, r5
 8000400:	611c      	str	r4, [r3, #16]
        FLASH->AR = flashAdr;
 8000402:	6158      	str	r0, [r3, #20]
        FLASH->CR |= FLASH_CR_STRT;
 8000404:	6918      	ldr	r0, [r3, #16]
        while ((FLASH->SR & FLASH_SR_BSY) != 0)
 8000406:	4c0e      	ldr	r4, [pc, #56]	; (8000440 <FlashErase+0x8c>)
        FLASH->CR |= FLASH_CR_STRT;
 8000408:	4338      	orrs	r0, r7
 800040a:	6118      	str	r0, [r3, #16]
        while ((FLASH->SR & FLASH_SR_BSY) != 0)
 800040c:	2001      	movs	r0, #1
 800040e:	4684      	mov	ip, r0
 8000410:	4666      	mov	r6, ip
 8000412:	68d8      	ldr	r0, [r3, #12]
 8000414:	4030      	ands	r0, r6
 8000416:	d10a      	bne.n	800042e <FlashErase+0x7a>
        FLASH->CR &= ~FLASH_CR_PER;
 8000418:	691c      	ldr	r4, [r3, #16]
 800041a:	3201      	adds	r2, #1
 800041c:	43ac      	bics	r4, r5
 800041e:	611c      	str	r4, [r3, #16]
        if ((FLASH->SR & (FLASH_SR_PGERR | FLASH_SR_WRPRTERR)) != 0)
 8000420:	68dc      	ldr	r4, [r3, #12]
 8000422:	420c      	tst	r4, r1
 8000424:	d0d7      	beq.n	80003d6 <FlashErase+0x22>
            FLASH->SR |= FLASH_SR_PGERR | FLASH_SR_WRPRTERR;
 8000426:	68da      	ldr	r2, [r3, #12]
 8000428:	4311      	orrs	r1, r2
 800042a:	60d9      	str	r1, [r3, #12]
            return 0;
 800042c:	e7e2      	b.n	80003f4 <FlashErase+0x40>
 800042e:	3c01      	subs	r4, #1
            if (0U == flashWait)
 8000430:	2c00      	cmp	r4, #0
 8000432:	d1ed      	bne.n	8000410 <FlashErase+0x5c>
 8000434:	e7dd      	b.n	80003f2 <FlashErase+0x3e>
 8000436:	46c0      	nop			; (mov r8, r8)
 8000438:	40022000 	.word	0x40022000
 800043c:	45670123 	.word	0x45670123
 8000440:	000493e0 	.word	0x000493e0
 8000444:	cdef89ab 	.word	0xcdef89ab
 8000448:	20000028 	.word	0x20000028
 800044c:	00020004 	.word	0x00020004

08000450 <FlashLock>:
* @brief Lock flash.
*
*******************************************************************************/
void FlashLock(void)
{
    FLASH->CR |= FLASH_CR_LOCK;
 8000450:	2380      	movs	r3, #128	; 0x80
 8000452:	4a02      	ldr	r2, [pc, #8]	; (800045c <FlashLock+0xc>)
 8000454:	6911      	ldr	r1, [r2, #16]
 8000456:	430b      	orrs	r3, r1
 8000458:	6113      	str	r3, [r2, #16]
}
 800045a:	4770      	bx	lr
 800045c:	40022000 	.word	0x40022000

08000460 <FlashWriteFWParam>:
*            or
*            0 if an error occurs.
*
*******************************************************************************/
uint8_t FlashWriteFWParam(tFIRMWARE_PARAM fwParam)
{
 8000460:	b5f7      	push	{r0, r1, r2, r4, r5, r6, r7, lr}
 8000462:	0006      	movs	r6, r0
    uint32_t flashWait = BootTIMEOUT;
    uint16_t *ad = (uint16_t *)FlashSettings.CRCinFlash;
    FLASH->SR |= FLASH_SR_PGERR | FLASH_SR_WRPRTERR;
 8000464:	2214      	movs	r2, #20
 8000466:	0c33      	lsrs	r3, r6, #16
 8000468:	9300      	str	r3, [sp, #0]
 800046a:	4b21      	ldr	r3, [pc, #132]	; (80004f0 <FlashWriteFWParam+0x90>)
{
 800046c:	9001      	str	r0, [sp, #4]
 800046e:	b281      	uxth	r1, r0
    FLASH->SR |= FLASH_SR_PGERR | FLASH_SR_WRPRTERR;
 8000470:	68d8      	ldr	r0, [r3, #12]
    uint16_t *ad = (uint16_t *)FlashSettings.CRCinFlash;
 8000472:	4f20      	ldr	r7, [pc, #128]	; (80004f4 <FlashWriteFWParam+0x94>)
    FLASH->SR |= FLASH_SR_PGERR | FLASH_SR_WRPRTERR;
 8000474:	4302      	orrs	r2, r0
    uint16_t *ad = (uint16_t *)FlashSettings.CRCinFlash;
 8000476:	683c      	ldr	r4, [r7, #0]
    FLASH->SR |= FLASH_SR_PGERR | FLASH_SR_WRPRTERR;
 8000478:	60da      	str	r2, [r3, #12]
    /* Write FW CRC */
    FLASH->CR |= FLASH_CR_PG;
 800047a:	2201      	movs	r2, #1
 800047c:	6918      	ldr	r0, [r3, #16]
    *ad = (uint16_t)fwParam.u16FWCRC;
    while ((FLASH->SR & FLASH_SR_BSY) != 0)
 800047e:	4d1e      	ldr	r5, [pc, #120]	; (80004f8 <FlashWriteFWParam+0x98>)
    FLASH->CR |= FLASH_CR_PG;
 8000480:	4310      	orrs	r0, r2
 8000482:	6118      	str	r0, [r3, #16]
    *ad = (uint16_t)fwParam.u16FWCRC;
 8000484:	8021      	strh	r1, [r4, #0]
    while ((FLASH->SR & FLASH_SR_BSY) != 0)
 8000486:	68d8      	ldr	r0, [r3, #12]
 8000488:	4010      	ands	r0, r2
 800048a:	d10c      	bne.n	80004a6 <FlashWriteFWParam+0x46>
        if (0U == flashWait)
        {
            return 0;
        }
    }
    FLASH->CR &= ~FLASH_CR_PG;
 800048c:	691d      	ldr	r5, [r3, #16]
 800048e:	4395      	bics	r5, r2
 8000490:	611d      	str	r5, [r3, #16]
    if ((FLASH->SR & (FLASH_SR_PGERR | FLASH_SR_WRPRTERR)) != 0)
 8000492:	68dd      	ldr	r5, [r3, #12]
 8000494:	46ac      	mov	ip, r5
 8000496:	2514      	movs	r5, #20
 8000498:	4666      	mov	r6, ip
 800049a:	422e      	tst	r6, r5
 800049c:	d008      	beq.n	80004b0 <FlashWriteFWParam+0x50>
    {
        FLASH->SR |= FLASH_SR_PGERR | FLASH_SR_WRPRTERR;
 800049e:	68da      	ldr	r2, [r3, #12]
 80004a0:	4315      	orrs	r5, r2
 80004a2:	60dd      	str	r5, [r3, #12]
        return 0;
 80004a4:	e003      	b.n	80004ae <FlashWriteFWParam+0x4e>
 80004a6:	3d01      	subs	r5, #1
        if (0U == flashWait)
 80004a8:	2d00      	cmp	r5, #0
 80004aa:	d1ec      	bne.n	8000486 <FlashWriteFWParam+0x26>
            return 0;
 80004ac:	2000      	movs	r0, #0
    if (*ad != fwParam.u16FWLen)
    {
        return 0;
    }
    return 1;
}
 80004ae:	bdfe      	pop	{r1, r2, r3, r4, r5, r6, r7, pc}
    FLASH->CR |= FLASH_CR_PG;
 80004b0:	691d      	ldr	r5, [r3, #16]
    ad = (uint16_t *)FlashSettings.LENinFlash;
 80004b2:	6878      	ldr	r0, [r7, #4]
    FLASH->CR |= FLASH_CR_PG;
 80004b4:	432a      	orrs	r2, r5
    while ((FLASH->SR & FLASH_SR_BSY) != 0)
 80004b6:	2501      	movs	r5, #1
    FLASH->CR |= FLASH_CR_PG;
 80004b8:	611a      	str	r2, [r3, #16]
    *ad = (uint16_t)fwParam.u16FWLen;
 80004ba:	9a00      	ldr	r2, [sp, #0]
 80004bc:	8002      	strh	r2, [r0, #0]
    while ((FLASH->SR & FLASH_SR_BSY) != 0)
 80004be:	4a0e      	ldr	r2, [pc, #56]	; (80004f8 <FlashWriteFWParam+0x98>)
 80004c0:	68d8      	ldr	r0, [r3, #12]
 80004c2:	4028      	ands	r0, r5
 80004c4:	d10a      	bne.n	80004dc <FlashWriteFWParam+0x7c>
    FLASH->CR &= ~FLASH_CR_PG;
 80004c6:	691a      	ldr	r2, [r3, #16]
 80004c8:	43aa      	bics	r2, r5
 80004ca:	611a      	str	r2, [r3, #16]
    if ((FLASH->SR & (FLASH_SR_PGERR | FLASH_SR_WRPRTERR)) != 0)
 80004cc:	2214      	movs	r2, #20
 80004ce:	68dd      	ldr	r5, [r3, #12]
 80004d0:	4215      	tst	r5, r2
 80004d2:	d007      	beq.n	80004e4 <FlashWriteFWParam+0x84>
        FLASH->SR |= FLASH_SR_PGERR | FLASH_SR_WRPRTERR;
 80004d4:	68d9      	ldr	r1, [r3, #12]
 80004d6:	430a      	orrs	r2, r1
 80004d8:	60da      	str	r2, [r3, #12]
        return 0;
 80004da:	e7e8      	b.n	80004ae <FlashWriteFWParam+0x4e>
 80004dc:	3a01      	subs	r2, #1
        if (0U == flashWait)
 80004de:	2a00      	cmp	r2, #0
 80004e0:	d1ee      	bne.n	80004c0 <FlashWriteFWParam+0x60>
 80004e2:	e7e3      	b.n	80004ac <FlashWriteFWParam+0x4c>
    if (*ad != fwParam.u16FWCRC)
 80004e4:	8820      	ldrh	r0, [r4, #0]
 80004e6:	1a40      	subs	r0, r0, r1
 80004e8:	4243      	negs	r3, r0
 80004ea:	4158      	adcs	r0, r3
            return 0;
 80004ec:	b2c0      	uxtb	r0, r0
 80004ee:	e7de      	b.n	80004ae <FlashWriteFWParam+0x4e>
 80004f0:	40022000 	.word	0x40022000
 80004f4:	20000028 	.word	0x20000028
 80004f8:	000493e0 	.word	0x000493e0

080004fc <FlashVerifyFirmware>:
*            or
*            0 if doesn't match.
*
*******************************************************************************/
uint8_t FlashVerifyFirmware(void)
{
 80004fc:	b5f7      	push	{r0, r1, r2, r4, r5, r6, r7, lr}
    volatile uint16_t i = 0;
 80004fe:	2200      	movs	r2, #0
 8000500:	466b      	mov	r3, sp
    uint32_t temp32 = *(uint32_t *)FlashSettings.CRCinFlash;
    volatile const uint16_t lenFromHost = (uint16_t)(temp32 >> 16U);
 8000502:	4668      	mov	r0, sp
    volatile uint16_t i = 0;
 8000504:	801a      	strh	r2, [r3, #0]
    uint32_t temp32 = *(uint32_t *)FlashSettings.CRCinFlash;
 8000506:	4b17      	ldr	r3, [pc, #92]	; (8000564 <FlashVerifyFirmware+0x68>)
    volatile const uint16_t lenFromHost = (uint16_t)(temp32 >> 16U);
 8000508:	1c84      	adds	r4, r0, #2
    uint32_t temp32 = *(uint32_t *)FlashSettings.CRCinFlash;
 800050a:	681b      	ldr	r3, [r3, #0]
    volatile const uint16_t crcFromHost = (uint16_t)(temp32 & 0x0000FFFFUL);
 800050c:	ae01      	add	r6, sp, #4
    volatile const uint16_t lenFromHost = (uint16_t)(temp32 >> 16U);
 800050e:	6819      	ldr	r1, [r3, #0]
    uint16_t dataByte = 0;
 8000510:	1d85      	adds	r5, r0, #6
    volatile const uint16_t lenFromHost = (uint16_t)(temp32 >> 16U);
 8000512:	0c09      	lsrs	r1, r1, #16
 8000514:	8021      	strh	r1, [r4, #0]
    volatile const uint16_t crcFromHost = (uint16_t)(temp32 & 0x0000FFFFUL);
 8000516:	6819      	ldr	r1, [r3, #0]
    uint16_t CRCtemp = 0;
    uint16_t *fwar = (uint16_t*)BSP_ABSOLUTE_APP_START;
    /* Read from FLASH_CRC_LENGTH_ADDRESS the firmware crc and length from host */

    /** Check if the length is within flash range or the read flash will fail */
    if (lenFromHost > (FlashSettings.CRCinFlash - BSP_ABSOLUTE_APP_START))
 8000518:	4813      	ldr	r0, [pc, #76]	; (8000568 <FlashVerifyFirmware+0x6c>)
    volatile const uint16_t crcFromHost = (uint16_t)(temp32 & 0x0000FFFFUL);
 800051a:	b289      	uxth	r1, r1
 800051c:	8031      	strh	r1, [r6, #0]
    if (lenFromHost > (FlashSettings.CRCinFlash - BSP_ABSOLUTE_APP_START))
 800051e:	8821      	ldrh	r1, [r4, #0]
 8000520:	181b      	adds	r3, r3, r0
    uint16_t dataByte = 0;
 8000522:	802a      	strh	r2, [r5, #0]
    {
        return 0;
 8000524:	0010      	movs	r0, r2
    if (lenFromHost > (FlashSettings.CRCinFlash - BSP_ABSOLUTE_APP_START))
 8000526:	4299      	cmp	r1, r3
 8000528:	d80a      	bhi.n	8000540 <FlashVerifyFirmware+0x44>
    uint16_t *fwar = (uint16_t*)BSP_ABSOLUTE_APP_START;
 800052a:	4b10      	ldr	r3, [pc, #64]	; (800056c <FlashVerifyFirmware+0x70>)
    }

    /* Calculate local crc */
    while (i < lenFromHost)
 800052c:	4669      	mov	r1, sp
 800052e:	8808      	ldrh	r0, [r1, #0]
 8000530:	8821      	ldrh	r1, [r4, #0]
 8000532:	4288      	cmp	r0, r1
 8000534:	d305      	bcc.n	8000542 <FlashVerifyFirmware+0x46>
        /* Read from address of the firmware and calculate crc */
        dataByte = *fwar++;
        CRCtemp = CRCCalc16((uint8_t *)&dataByte, 2, CRCtemp);
        i += 2;
    }
    if (CRCtemp == crcFromHost)
 8000536:	8833      	ldrh	r3, [r6, #0]
 8000538:	1a9a      	subs	r2, r3, r2
 800053a:	4250      	negs	r0, r2
 800053c:	4150      	adcs	r0, r2
        return 0;
 800053e:	b2c0      	uxtb	r0, r0
    {
        return 1;
    }
    return 0;
}
 8000540:	bdfe      	pop	{r1, r2, r3, r4, r5, r6, r7, pc}
        dataByte = *fwar++;
 8000542:	1c9f      	adds	r7, r3, #2
 8000544:	881b      	ldrh	r3, [r3, #0]
        CRCtemp = CRCCalc16((uint8_t *)&dataByte, 2, CRCtemp);
 8000546:	2102      	movs	r1, #2
 8000548:	0028      	movs	r0, r5
        dataByte = *fwar++;
 800054a:	802b      	strh	r3, [r5, #0]
        CRCtemp = CRCCalc16((uint8_t *)&dataByte, 2, CRCtemp);
 800054c:	f7ff fe9e 	bl	800028c <CRCCalc16>
        i += 2;
 8000550:	466b      	mov	r3, sp
 8000552:	4669      	mov	r1, sp
 8000554:	881b      	ldrh	r3, [r3, #0]
        CRCtemp = CRCCalc16((uint8_t *)&dataByte, 2, CRCtemp);
 8000556:	0002      	movs	r2, r0
        i += 2;
 8000558:	3302      	adds	r3, #2
 800055a:	b29b      	uxth	r3, r3
 800055c:	800b      	strh	r3, [r1, #0]
        dataByte = *fwar++;
 800055e:	003b      	movs	r3, r7
 8000560:	e7e4      	b.n	800052c <FlashVerifyFirmware+0x30>
 8000562:	46c0      	nop			; (mov r8, r8)
 8000564:	20000028 	.word	0x20000028
 8000568:	f7fff000 	.word	0xf7fff000
 800056c:	08001000 	.word	0x08001000

08000570 <ProtocolSM_Run>:
*            or
*            error otherwise.
*
*******************************************************************************/
eFUNCTION_RETURN ProtocolSM_Run(const tBSPStruct *pBSP)
{
 8000570:	b5f8      	push	{r3, r4, r5, r6, r7, lr}
    static uint16_t pktCounter;
    uint16_t crcCalculated = 0U;
    static uint32_t tickCounter = 0U;
    static uint32_t stickyTimer = 0U;

    switch (stateNow)
 8000572:	4b93      	ldr	r3, [pc, #588]	; (80007c0 <ProtocolSM_Run+0x250>)
{
 8000574:	0005      	movs	r5, r0
    switch (stateNow)
 8000576:	7818      	ldrb	r0, [r3, #0]
 8000578:	2808      	cmp	r0, #8
 800057a:	d900      	bls.n	800057e <ProtocolSM_Run+0xe>
 800057c:	e119      	b.n	80007b2 <ProtocolSM_Run+0x242>
 800057e:	f7ff fda1 	bl	80000c4 <__gnu_thumb1_case_uhi>
 8000582:	0009      	.short	0x0009
 8000584:	002f0016 	.word	0x002f0016
 8000588:	008f0044 	.word	0x008f0044
 800058c:	00d100b8 	.word	0x00d100b8
 8000590:	00f400e1 	.word	0x00f400e1
            //     {
            //         tickCounter++;
            //         stateNext = eDefaultState;
            //     }
            // }
            if (eFunction_Ok == pBSP->pRecv(Payload.bufferPLD, 5U))
 8000594:	2105      	movs	r1, #5
 8000596:	488b      	ldr	r0, [pc, #556]	; (80007c4 <ProtocolSM_Run+0x254>)
 8000598:	68eb      	ldr	r3, [r5, #12]
 800059a:	4798      	blx	r3
 800059c:	1e04      	subs	r4, r0, #0
 800059e:	d001      	beq.n	80005a4 <ProtocolSM_Run+0x34>
    eFUNCTION_RETURN retVal = eFunction_Ok;
 80005a0:	2400      	movs	r4, #0
            stateNext = ePayloadReceive;
            Payload.packet.u16SeqCnt = 0xFFFFU;
            Payload.packet.u16CRC = 0xFFFFU;
            pBSP->pSend(Command.bufferCMD, 2);

            break;
 80005a2:	e067      	b.n	8000674 <ProtocolSM_Run+0x104>
                pBSP->pSend((uint8_t*)"Hello", 4);
 80005a4:	2104      	movs	r1, #4
 80005a6:	4888      	ldr	r0, [pc, #544]	; (80007c8 <ProtocolSM_Run+0x258>)
                {
                    stateNext = eFinishUpdate;
                    pBSP->pReset();
                    Command.returnValue = eRES_OK;
                }
                pBSP->pSend(Command.bufferCMD, 2);
 80005a8:	68ab      	ldr	r3, [r5, #8]
 80005aa:	4798      	blx	r3
 80005ac:	e062      	b.n	8000674 <ProtocolSM_Run+0x104>
            if (pBSP->pRecv(Command.bufferCMD, 2) == eFunction_Ok)
 80005ae:	4e87      	ldr	r6, [pc, #540]	; (80007cc <ProtocolSM_Run+0x25c>)
 80005b0:	2102      	movs	r1, #2
 80005b2:	0030      	movs	r0, r6
 80005b4:	68eb      	ldr	r3, [r5, #12]
 80005b6:	4798      	blx	r3
 80005b8:	1e04      	subs	r4, r0, #0
 80005ba:	d1f1      	bne.n	80005a0 <ProtocolSM_Run+0x30>
                if (Command.receivedvalue == eCMD_EraseFlash)
 80005bc:	8832      	ldrh	r2, [r6, #0]
 80005be:	4b84      	ldr	r3, [pc, #528]	; (80007d0 <ProtocolSM_Run+0x260>)
 80005c0:	429a      	cmp	r2, r3
 80005c2:	d1ed      	bne.n	80005a0 <ProtocolSM_Run+0x30>
                    if (FlashErase())
 80005c4:	f7ff fef6 	bl	80003b4 <FlashErase>
 80005c8:	2800      	cmp	r0, #0
 80005ca:	d004      	beq.n	80005d6 <ProtocolSM_Run+0x66>
                        stateNext = eWriteMemory;
 80005cc:	2202      	movs	r2, #2
 80005ce:	4b81      	ldr	r3, [pc, #516]	; (80007d4 <ProtocolSM_Run+0x264>)
 80005d0:	701a      	strb	r2, [r3, #0]
                    Command.returnValue = eRES_OK;
 80005d2:	4b81      	ldr	r3, [pc, #516]	; (80007d8 <ProtocolSM_Run+0x268>)
 80005d4:	e000      	b.n	80005d8 <ProtocolSM_Run+0x68>
                        Command.returnValue = eRES_Error;
 80005d6:	4b81      	ldr	r3, [pc, #516]	; (80007dc <ProtocolSM_Run+0x26c>)
                    Command.returnValue = eRES_OK;
 80005d8:	8033      	strh	r3, [r6, #0]
                pBSP->pSend(Command.bufferCMD, 2);
 80005da:	2102      	movs	r1, #2
 80005dc:	0030      	movs	r0, r6
 80005de:	e7e3      	b.n	80005a8 <ProtocolSM_Run+0x38>
            if (pBSP->pRecv(Command.bufferCMD, 2) == eFunction_Ok)
 80005e0:	4e7a      	ldr	r6, [pc, #488]	; (80007cc <ProtocolSM_Run+0x25c>)
 80005e2:	2102      	movs	r1, #2
 80005e4:	0030      	movs	r0, r6
 80005e6:	68eb      	ldr	r3, [r5, #12]
 80005e8:	4798      	blx	r3
 80005ea:	1e04      	subs	r4, r0, #0
 80005ec:	d1d8      	bne.n	80005a0 <ProtocolSM_Run+0x30>
                if (Command.receivedvalue == eCMD_WriteMemory)
 80005ee:	8832      	ldrh	r2, [r6, #0]
 80005f0:	4b7b      	ldr	r3, [pc, #492]	; (80007e0 <ProtocolSM_Run+0x270>)
 80005f2:	429a      	cmp	r2, r3
 80005f4:	d1d4      	bne.n	80005a0 <ProtocolSM_Run+0x30>
                    stateNext = ePayloadReceive;
 80005f6:	2203      	movs	r2, #3
 80005f8:	4b76      	ldr	r3, [pc, #472]	; (80007d4 <ProtocolSM_Run+0x264>)
 80005fa:	701a      	strb	r2, [r3, #0]
                    Payload.packet.u16SeqCnt = 0xFFFFU;
 80005fc:	4b71      	ldr	r3, [pc, #452]	; (80007c4 <ProtocolSM_Run+0x254>)
 80005fe:	3a04      	subs	r2, #4
 8000600:	3302      	adds	r3, #2
 8000602:	87da      	strh	r2, [r3, #62]	; 0x3e
                    pktCounter = 0;
 8000604:	4b77      	ldr	r3, [pc, #476]	; (80007e4 <ProtocolSM_Run+0x274>)
 8000606:	8018      	strh	r0, [r3, #0]
 8000608:	e7e3      	b.n	80005d2 <ProtocolSM_Run+0x62>
            retVal = pBSP->pRecv(Payload.bufferPLD, sizeof(tPldUnion));
 800060a:	4e6e      	ldr	r6, [pc, #440]	; (80007c4 <ProtocolSM_Run+0x254>)
 800060c:	2144      	movs	r1, #68	; 0x44
 800060e:	68eb      	ldr	r3, [r5, #12]
 8000610:	0030      	movs	r0, r6
 8000612:	4798      	blx	r3
            if ((pktCounter == Payload.packet.u16SeqCnt) && (retVal == eFunction_Ok))
 8000614:	1cb3      	adds	r3, r6, #2
 8000616:	8fda      	ldrh	r2, [r3, #62]	; 0x3e
 8000618:	4b72      	ldr	r3, [pc, #456]	; (80007e4 <ProtocolSM_Run+0x274>)
            retVal = pBSP->pRecv(Payload.bufferPLD, sizeof(tPldUnion));
 800061a:	0004      	movs	r4, r0
            if ((pktCounter == Payload.packet.u16SeqCnt) && (retVal == eFunction_Ok))
 800061c:	881b      	ldrh	r3, [r3, #0]
 800061e:	496d      	ldr	r1, [pc, #436]	; (80007d4 <ProtocolSM_Run+0x264>)
 8000620:	4293      	cmp	r3, r2
 8000622:	d105      	bne.n	8000630 <ProtocolSM_Run+0xc0>
 8000624:	2800      	cmp	r0, #0
 8000626:	d103      	bne.n	8000630 <ProtocolSM_Run+0xc0>
                stateNext = ePayloadCheck;
 8000628:	2304      	movs	r3, #4
 800062a:	700b      	strb	r3, [r1, #0]
                tickCounter = 0;
 800062c:	4b6e      	ldr	r3, [pc, #440]	; (80007e8 <ProtocolSM_Run+0x278>)
 800062e:	6018      	str	r0, [r3, #0]
            if (Payload.packet.u16CRC == 0xFFFFU)
 8000630:	1d33      	adds	r3, r6, #4
 8000632:	8fdb      	ldrh	r3, [r3, #62]	; 0x3e
 8000634:	486d      	ldr	r0, [pc, #436]	; (80007ec <ProtocolSM_Run+0x27c>)
 8000636:	4283      	cmp	r3, r0
 8000638:	d11c      	bne.n	8000674 <ProtocolSM_Run+0x104>
                if (Payload.packet.u16SeqCnt == 0xFFFFU)
 800063a:	429a      	cmp	r2, r3
 800063c:	d11a      	bne.n	8000674 <ProtocolSM_Run+0x104>
                    if (Payload.packet.u8Data[0] == (uint8_t)(eCMD_WriteCRC & 0x00FFU))
 800063e:	7833      	ldrb	r3, [r6, #0]
 8000640:	2b04      	cmp	r3, #4
 8000642:	d117      	bne.n	8000674 <ProtocolSM_Run+0x104>
                        if (Payload.packet.u8Data[1] == (uint8_t)((eCMD_WriteCRC >> 8) & 0x00FFU))
 8000644:	7873      	ldrb	r3, [r6, #1]
 8000646:	2bfb      	cmp	r3, #251	; 0xfb
 8000648:	d114      	bne.n	8000674 <ProtocolSM_Run+0x104>
                            if (tickCounter > pBSP->TwoBytesTicks)
 800064a:	4a67      	ldr	r2, [pc, #412]	; (80007e8 <ProtocolSM_Run+0x278>)
 800064c:	6a28      	ldr	r0, [r5, #32]
 800064e:	6813      	ldr	r3, [r2, #0]
 8000650:	4298      	cmp	r0, r3
 8000652:	d20d      	bcs.n	8000670 <ProtocolSM_Run+0x100>
                                AppData.Firmware.u16FWCRC = 0xFFFFU;
 8000654:	2201      	movs	r2, #1
 8000656:	4b66      	ldr	r3, [pc, #408]	; (80007f0 <ProtocolSM_Run+0x280>)
 8000658:	4252      	negs	r2, r2
 800065a:	801a      	strh	r2, [r3, #0]
                                AppData.Firmware.u16FWLen = 0xFFFFU;
 800065c:	805a      	strh	r2, [r3, #2]
                                stateNext = eWriteAppCRC;
 800065e:	2305      	movs	r3, #5
 8000660:	700b      	strb	r3, [r1, #0]
                                pBSP->pReset();
 8000662:	692b      	ldr	r3, [r5, #16]
 8000664:	4798      	blx	r3
                                Command.returnValue = eRES_OK;
 8000666:	4859      	ldr	r0, [pc, #356]	; (80007cc <ProtocolSM_Run+0x25c>)
 8000668:	4b5b      	ldr	r3, [pc, #364]	; (80007d8 <ProtocolSM_Run+0x268>)
                                pBSP->pSend(Command.bufferCMD, 2);
 800066a:	2102      	movs	r1, #2
                                Command.returnValue = eRES_OK;
 800066c:	8003      	strh	r3, [r0, #0]
 800066e:	e79b      	b.n	80005a8 <ProtocolSM_Run+0x38>
                                tickCounter++;
 8000670:	3301      	adds	r3, #1
 8000672:	6013      	str	r3, [r2, #0]

    /* Check if the same state is repeating, no transition suggests a
     * hung state. We can count the stickyness of the software and reset
     * to a known state.
     */
    if (stateNext == stateNow)
 8000674:	4b52      	ldr	r3, [pc, #328]	; (80007c0 <ProtocolSM_Run+0x250>)
 8000676:	4957      	ldr	r1, [pc, #348]	; (80007d4 <ProtocolSM_Run+0x264>)
 8000678:	781a      	ldrb	r2, [r3, #0]
 800067a:	7808      	ldrb	r0, [r1, #0]
 800067c:	4b5d      	ldr	r3, [pc, #372]	; (80007f4 <ProtocolSM_Run+0x284>)
 800067e:	4290      	cmp	r0, r2
 8000680:	d000      	beq.n	8000684 <ProtocolSM_Run+0x114>
 8000682:	e09a      	b.n	80007ba <ProtocolSM_Run+0x24a>
    {
        stickyTimer++;
 8000684:	681a      	ldr	r2, [r3, #0]
        /* If the timeout has expired, we reboot the system */
        if (stickyTimer > pBSP->BootTimeoutTicks)
 8000686:	6968      	ldr	r0, [r5, #20]
        stickyTimer++;
 8000688:	3201      	adds	r2, #1
 800068a:	601a      	str	r2, [r3, #0]
        if (stickyTimer > pBSP->BootTimeoutTicks)
 800068c:	4282      	cmp	r2, r0
 800068e:	d902      	bls.n	8000696 <ProtocolSM_Run+0x126>
        {
            stateNext = eDefaultState;
 8000690:	2200      	movs	r2, #0
 8000692:	700a      	strb	r2, [r1, #0]
            stickyTimer = 0U;
        }
    }else
    {
        /* Reset the sticky counter if the state transition takes place */
        stickyTimer = 0U;
 8000694:	601a      	str	r2, [r3, #0]
    }

    stateNow = stateNext;
 8000696:	780b      	ldrb	r3, [r1, #0]
 8000698:	4a49      	ldr	r2, [pc, #292]	; (80007c0 <ProtocolSM_Run+0x250>)

    return (retVal);
}
 800069a:	0020      	movs	r0, r4
    stateNow = stateNext;
 800069c:	7013      	strb	r3, [r2, #0]
}
 800069e:	bdf8      	pop	{r3, r4, r5, r6, r7, pc}
            crcCalculated = CRCCalc16(Payload.packet.u8Data, 64, 0);
 80006a0:	4c48      	ldr	r4, [pc, #288]	; (80007c4 <ProtocolSM_Run+0x254>)
 80006a2:	2200      	movs	r2, #0
 80006a4:	2140      	movs	r1, #64	; 0x40
 80006a6:	0020      	movs	r0, r4
 80006a8:	f7ff fdf0 	bl	800028c <CRCCalc16>
            if (crcCalculated == Payload.packet.u16CRC)
 80006ac:	1d23      	adds	r3, r4, #4
 80006ae:	8fdb      	ldrh	r3, [r3, #62]	; 0x3e
 80006b0:	4e46      	ldr	r6, [pc, #280]	; (80007cc <ProtocolSM_Run+0x25c>)
 80006b2:	4283      	cmp	r3, r0
 80006b4:	d11a      	bne.n	80006ec <ProtocolSM_Run+0x17c>
                if (FlashWrite(Payload.bufferPLD, BLOCK_SIZE, pktCounter))
 80006b6:	4f4b      	ldr	r7, [pc, #300]	; (80007e4 <ProtocolSM_Run+0x274>)
 80006b8:	2140      	movs	r1, #64	; 0x40
 80006ba:	883a      	ldrh	r2, [r7, #0]
 80006bc:	0020      	movs	r0, r4
 80006be:	f7ff fe23 	bl	8000308 <FlashWrite>
 80006c2:	2800      	cmp	r0, #0
 80006c4:	d004      	beq.n	80006d0 <ProtocolSM_Run+0x160>
                        Command.returnValue = eRES_OK;
 80006c6:	4b44      	ldr	r3, [pc, #272]	; (80007d8 <ProtocolSM_Run+0x268>)
 80006c8:	8033      	strh	r3, [r6, #0]
                        pktCounter++;
 80006ca:	883b      	ldrh	r3, [r7, #0]
 80006cc:	3301      	adds	r3, #1
 80006ce:	803b      	strh	r3, [r7, #0]
            stateNext = ePayloadReceive;
 80006d0:	2203      	movs	r2, #3
 80006d2:	4b40      	ldr	r3, [pc, #256]	; (80007d4 <ProtocolSM_Run+0x264>)
            pBSP->pSend(Command.bufferCMD, 2);
 80006d4:	2102      	movs	r1, #2
            stateNext = ePayloadReceive;
 80006d6:	701a      	strb	r2, [r3, #0]
            Payload.packet.u16SeqCnt = 0xFFFFU;
 80006d8:	2301      	movs	r3, #1
            pBSP->pSend(Command.bufferCMD, 2);
 80006da:	0030      	movs	r0, r6
            Payload.packet.u16SeqCnt = 0xFFFFU;
 80006dc:	1ca2      	adds	r2, r4, #2
 80006de:	425b      	negs	r3, r3
            Payload.packet.u16CRC = 0xFFFFU;
 80006e0:	3404      	adds	r4, #4
            Payload.packet.u16SeqCnt = 0xFFFFU;
 80006e2:	87d3      	strh	r3, [r2, #62]	; 0x3e
            Payload.packet.u16CRC = 0xFFFFU;
 80006e4:	87e3      	strh	r3, [r4, #62]	; 0x3e
            pBSP->pSend(Command.bufferCMD, 2);
 80006e6:	68ab      	ldr	r3, [r5, #8]
 80006e8:	4798      	blx	r3
 80006ea:	e759      	b.n	80005a0 <ProtocolSM_Run+0x30>
                Command.returnValue = eRES_Error;
 80006ec:	4b3b      	ldr	r3, [pc, #236]	; (80007dc <ProtocolSM_Run+0x26c>)
 80006ee:	8033      	strh	r3, [r6, #0]
 80006f0:	e7ee      	b.n	80006d0 <ProtocolSM_Run+0x160>
            retVal = pBSP->pRecv(AppData.bufferData, 4);
 80006f2:	4f3f      	ldr	r7, [pc, #252]	; (80007f0 <ProtocolSM_Run+0x280>)
 80006f4:	2104      	movs	r1, #4
 80006f6:	0038      	movs	r0, r7
 80006f8:	68eb      	ldr	r3, [r5, #12]
 80006fa:	4798      	blx	r3
 80006fc:	1e04      	subs	r4, r0, #0
            if (retVal == eFunction_Ok)
 80006fe:	d1b9      	bne.n	8000674 <ProtocolSM_Run+0x104>
                Command.returnValue = eRES_Error;
 8000700:	4b36      	ldr	r3, [pc, #216]	; (80007dc <ProtocolSM_Run+0x26c>)
 8000702:	4e32      	ldr	r6, [pc, #200]	; (80007cc <ProtocolSM_Run+0x25c>)
                if (FlashWriteFWParam(AppData.Firmware))
 8000704:	8878      	ldrh	r0, [r7, #2]
                Command.returnValue = eRES_Error;
 8000706:	8033      	strh	r3, [r6, #0]
                if (FlashWriteFWParam(AppData.Firmware))
 8000708:	883b      	ldrh	r3, [r7, #0]
 800070a:	0400      	lsls	r0, r0, #16
 800070c:	4318      	orrs	r0, r3
 800070e:	f7ff fea7 	bl	8000460 <FlashWriteFWParam>
 8000712:	2800      	cmp	r0, #0
 8000714:	d100      	bne.n	8000718 <ProtocolSM_Run+0x1a8>
 8000716:	e760      	b.n	80005da <ProtocolSM_Run+0x6a>
                    stateNext = eFinishUpdate;
 8000718:	2206      	movs	r2, #6
 800071a:	4b2e      	ldr	r3, [pc, #184]	; (80007d4 <ProtocolSM_Run+0x264>)
 800071c:	701a      	strb	r2, [r3, #0]
                    pBSP->pReset();
 800071e:	692b      	ldr	r3, [r5, #16]
 8000720:	4798      	blx	r3
 8000722:	e756      	b.n	80005d2 <ProtocolSM_Run+0x62>
            retVal = pBSP->pRecv(Command.bufferCMD, 2);
 8000724:	4e29      	ldr	r6, [pc, #164]	; (80007cc <ProtocolSM_Run+0x25c>)
 8000726:	2102      	movs	r1, #2
 8000728:	0030      	movs	r0, r6
 800072a:	68eb      	ldr	r3, [r5, #12]
 800072c:	4798      	blx	r3
 800072e:	1e04      	subs	r4, r0, #0
            if ((retVal == eFunction_Ok) && (Command.receivedvalue == eCMD_Finish))
 8000730:	d1a0      	bne.n	8000674 <ProtocolSM_Run+0x104>
 8000732:	8832      	ldrh	r2, [r6, #0]
 8000734:	4b30      	ldr	r3, [pc, #192]	; (80007f8 <ProtocolSM_Run+0x288>)
 8000736:	429a      	cmp	r2, r3
 8000738:	d000      	beq.n	800073c <ProtocolSM_Run+0x1cc>
 800073a:	e731      	b.n	80005a0 <ProtocolSM_Run+0x30>
                stateNext = eFlashVerifyApplication;
 800073c:	2207      	movs	r2, #7
 800073e:	4b25      	ldr	r3, [pc, #148]	; (80007d4 <ProtocolSM_Run+0x264>)
 8000740:	701a      	strb	r2, [r3, #0]
 8000742:	e797      	b.n	8000674 <ProtocolSM_Run+0x104>
            Command.returnValue = eRES_Abort;
 8000744:	4b2d      	ldr	r3, [pc, #180]	; (80007fc <ProtocolSM_Run+0x28c>)
 8000746:	4c21      	ldr	r4, [pc, #132]	; (80007cc <ProtocolSM_Run+0x25c>)
 8000748:	8023      	strh	r3, [r4, #0]
            if (FlashVerifyFirmware())
 800074a:	f7ff fed7 	bl	80004fc <FlashVerifyFirmware>
 800074e:	4b21      	ldr	r3, [pc, #132]	; (80007d4 <ProtocolSM_Run+0x264>)
 8000750:	2800      	cmp	r0, #0
 8000752:	d006      	beq.n	8000762 <ProtocolSM_Run+0x1f2>
                Command.returnValue = eRES_OK;
 8000754:	4a20      	ldr	r2, [pc, #128]	; (80007d8 <ProtocolSM_Run+0x268>)
 8000756:	8022      	strh	r2, [r4, #0]
                stateNext = eStartAppCMD;
 8000758:	2208      	movs	r2, #8
 800075a:	701a      	strb	r2, [r3, #0]
            pBSP->pSend(Command.bufferCMD, 2);
 800075c:	2102      	movs	r1, #2
 800075e:	0020      	movs	r0, r4
 8000760:	e7c1      	b.n	80006e6 <ProtocolSM_Run+0x176>
                Command.returnValue = eRES_AppCrcErr;
 8000762:	4a27      	ldr	r2, [pc, #156]	; (8000800 <ProtocolSM_Run+0x290>)
                stateNext = eDefaultState;
 8000764:	7018      	strb	r0, [r3, #0]
                Command.returnValue = eRES_AppCrcErr;
 8000766:	8022      	strh	r2, [r4, #0]
 8000768:	e7f8      	b.n	800075c <ProtocolSM_Run+0x1ec>
            tickCounter = pBSP->CommDoneTicks;
 800076a:	4b1f      	ldr	r3, [pc, #124]	; (80007e8 <ProtocolSM_Run+0x278>)
 800076c:	69ea      	ldr	r2, [r5, #28]
 800076e:	601a      	str	r2, [r3, #0]
                __NOP();
 8000770:	46c0      	nop			; (mov r8, r8)
            }while (tickCounter--);
 8000772:	681a      	ldr	r2, [r3, #0]
 8000774:	1e51      	subs	r1, r2, #1
 8000776:	6019      	str	r1, [r3, #0]
 8000778:	2a00      	cmp	r2, #0
 800077a:	d1f9      	bne.n	8000770 <ProtocolSM_Run+0x200>
            FlashLock();
 800077c:	f7ff fe68 	bl	8000450 <FlashLock>
 8000780:	4b20      	ldr	r3, [pc, #128]	; (8000804 <ProtocolSM_Run+0x294>)
            for (int i = 0; i < BSP_APP_VECTOR_SIZE_WORDS; i++)
 8000782:	4921      	ldr	r1, [pc, #132]	; (8000808 <ProtocolSM_Run+0x298>)
 8000784:	001a      	movs	r2, r3
 8000786:	4821      	ldr	r0, [pc, #132]	; (800080c <ProtocolSM_Run+0x29c>)
 8000788:	1818      	adds	r0, r3, r0
                AppVectorsInRAM[i] = AppVectorsInFlash[i];
 800078a:	cb10      	ldmia	r3!, {r4}
 800078c:	6004      	str	r4, [r0, #0]
            for (int i = 0; i < BSP_APP_VECTOR_SIZE_WORDS; i++)
 800078e:	428b      	cmp	r3, r1
 8000790:	d1f9      	bne.n	8000786 <ProtocolSM_Run+0x216>
            RCC->APB2ENR |= RCC_APB2ENR_SYSCFGCOMPEN;
 8000792:	2301      	movs	r3, #1
 8000794:	491e      	ldr	r1, [pc, #120]	; (8000810 <ProtocolSM_Run+0x2a0>)
 8000796:	6988      	ldr	r0, [r1, #24]
 8000798:	4303      	orrs	r3, r0
 800079a:	618b      	str	r3, [r1, #24]
            SYSCFG->CFGR1 |= SYSCFG_CFGR1_MEM_MODE;
 800079c:	2303      	movs	r3, #3
 800079e:	491d      	ldr	r1, [pc, #116]	; (8000814 <ProtocolSM_Run+0x2a4>)
 80007a0:	6808      	ldr	r0, [r1, #0]
 80007a2:	4303      	orrs	r3, r0
 80007a4:	600b      	str	r3, [r1, #0]
            __set_MSP(*AppVectorsInFlash);
 80007a6:	6813      	ldr	r3, [r2, #0]
  \details Assigns the given value to the Main Stack Pointer (MSP).
  \param [in]    topOfMainStack  Main Stack Pointer value to set
 */
__STATIC_FORCEINLINE void __set_MSP(uint32_t topOfMainStack)
{
  __ASM volatile ("MSR msp, %0" : : "r" (topOfMainStack) : );
 80007a8:	f383 8808 	msr	MSP, r3
            ((void (*)(void))*(AppVectorsInFlash + 1UL))();
 80007ac:	6853      	ldr	r3, [r2, #4]
 80007ae:	4798      	blx	r3
 80007b0:	e6f6      	b.n	80005a0 <ProtocolSM_Run+0x30>
            stateNext = eDefaultState;
 80007b2:	2400      	movs	r4, #0
 80007b4:	4b07      	ldr	r3, [pc, #28]	; (80007d4 <ProtocolSM_Run+0x264>)
 80007b6:	701c      	strb	r4, [r3, #0]
            break;
 80007b8:	e75c      	b.n	8000674 <ProtocolSM_Run+0x104>
        stickyTimer = 0U;
 80007ba:	2200      	movs	r2, #0
 80007bc:	e76a      	b.n	8000694 <ProtocolSM_Run+0x124>
 80007be:	46c0      	nop			; (mov r8, r8)
 80007c0:	20000081 	.word	0x20000081
 80007c4:	2000003a 	.word	0x2000003a
 80007c8:	08000b0c 	.word	0x08000b0c
 80007cc:	20000038 	.word	0x20000038
 80007d0:	0000fe01 	.word	0x0000fe01
 80007d4:	20000080 	.word	0x20000080
 80007d8:	00000cf3 	.word	0x00000cf3
 80007dc:	00000bf4 	.word	0x00000bf4
 80007e0:	0000fd02 	.word	0x0000fd02
 80007e4:	2000007e 	.word	0x2000007e
 80007e8:	20000088 	.word	0x20000088
 80007ec:	0000ffff 	.word	0x0000ffff
 80007f0:	20000034 	.word	0x20000034
 80007f4:	20000084 	.word	0x20000084
 80007f8:	0000fa05 	.word	0x0000fa05
 80007fc:	00000df2 	.word	0x00000df2
 8000800:	00000af5 	.word	0x00000af5
 8000804:	08001000 	.word	0x08001000
 8000808:	080010c0 	.word	0x080010c0
 800080c:	17fff000 	.word	0x17fff000
 8000810:	40021000 	.word	0x40021000
 8000814:	40010000 	.word	0x40010000

08000818 <Usart1Init>:
*              based bsp types handled.
*
*******************************************************************************/
void Usart1Init(tBSPType BSPType)
{
    RCC->AHBENR |= RCC_AHBENR_GPIOAEN;
 8000818:	2380      	movs	r3, #128	; 0x80
{
 800081a:	b570      	push	{r4, r5, r6, lr}
 800081c:	2602      	movs	r6, #2
    RCC->AHBENR |= RCC_AHBENR_GPIOAEN;
 800081e:	4a43      	ldr	r2, [pc, #268]	; (800092c <Usart1Init+0x114>)
 8000820:	029b      	lsls	r3, r3, #10
 8000822:	6951      	ldr	r1, [r2, #20]
 8000824:	4d42      	ldr	r5, [pc, #264]	; (8000930 <Usart1Init+0x118>)
 8000826:	430b      	orrs	r3, r1
 8000828:	6153      	str	r3, [r2, #20]
 800082a:	4942      	ldr	r1, [pc, #264]	; (8000934 <Usart1Init+0x11c>)
 800082c:	4c42      	ldr	r4, [pc, #264]	; (8000938 <Usart1Init+0x120>)
 800082e:	4b43      	ldr	r3, [pc, #268]	; (800093c <Usart1Init+0x124>)

    switch (BSPType)
    {
        case BSP_Pilot:
            TxPin = BSP_PILOT_UART_TX_PIN;
 8000830:	602e      	str	r6, [r5, #0]
    switch (BSPType)
 8000832:	2801      	cmp	r0, #1
 8000834:	d000      	beq.n	8000838 <Usart1Init+0x20>
 8000836:	e074      	b.n	8000922 <Usart1Init+0x10a>
            RxPin = BSP_PILOT_UART_RX_PIN;
 8000838:	1980      	adds	r0, r0, r6
 800083a:	6008      	str	r0, [r1, #0]
            Baud  = BSP_PILOT_UART_BAUD;
 800083c:	21e1      	movs	r1, #225	; 0xe1
 800083e:	0209      	lsls	r1, r1, #8

        case BSP_TorqueSensor:
        default:
            TxPin = BSP_TORQUE_UART_TX_PIN;
            RxPin = BSP_TORQUE_UART_RX_PIN;
            Baud  = BSP_TORQUE_UART_BAUD;
 8000840:	6021      	str	r1, [r4, #0]
            pGPIO_USART = BSP_TORQUE_UART_PORT;
 8000842:	2190      	movs	r1, #144	; 0x90
 8000844:	05c9      	lsls	r1, r1, #23
 8000846:	6019      	str	r1, [r3, #0]
            break;
    }

    pGPIO_USART->AFR[TxPin >> 3] &= ~((uint32_t)MASK4 << (((uint32_t)TxPin & MASK3) << 2U));
 8000848:	2390      	movs	r3, #144	; 0x90
 800084a:	05db      	lsls	r3, r3, #23
 800084c:	6a19      	ldr	r1, [r3, #32]
 800084e:	483c      	ldr	r0, [pc, #240]	; (8000940 <Usart1Init+0x128>)
    pGPIO_USART->AFR[RxPin >> 3] &= ~((uint32_t)MASK4 << (((uint32_t)RxPin & MASK3) << 2U));
    pGPIO_USART->AFR[RxPin >> 3] |= ((uint32_t)GPIO_AF_1 << (((uint32_t)RxPin & MASK3) << 2U));

    pGPIO_USART->OSPEEDR &= ~(GPIO_OSPEEDER_OSPEEDR0 << (TxPin << 1));
    pGPIO_USART->OSPEEDR |= ((uint32_t)GPIO_Speed_Level_3 << (TxPin << 1));
    pGPIO_USART->OTYPER &= ~((GPIO_OTYPER_OT_0) << ((uint16_t)TxPin));
 8000850:	2504      	movs	r5, #4
    pGPIO_USART->AFR[TxPin >> 3] &= ~((uint32_t)MASK4 << (((uint32_t)TxPin & MASK3) << 2U));
 8000852:	4001      	ands	r1, r0
 8000854:	6219      	str	r1, [r3, #32]
    pGPIO_USART->AFR[TxPin >> 3] |= ((uint32_t)GPIO_AF_1 << (((uint32_t)TxPin & MASK3) << 2U));
 8000856:	2180      	movs	r1, #128	; 0x80
 8000858:	6a18      	ldr	r0, [r3, #32]
 800085a:	0049      	lsls	r1, r1, #1
 800085c:	4301      	orrs	r1, r0
 800085e:	6219      	str	r1, [r3, #32]
    pGPIO_USART->AFR[RxPin >> 3] &= ~((uint32_t)MASK4 << (((uint32_t)RxPin & MASK3) << 2U));
 8000860:	6a19      	ldr	r1, [r3, #32]
 8000862:	4838      	ldr	r0, [pc, #224]	; (8000944 <Usart1Init+0x12c>)
 8000864:	4001      	ands	r1, r0
 8000866:	6219      	str	r1, [r3, #32]
    pGPIO_USART->AFR[RxPin >> 3] |= ((uint32_t)GPIO_AF_1 << (((uint32_t)RxPin & MASK3) << 2U));
 8000868:	2180      	movs	r1, #128	; 0x80
 800086a:	6a18      	ldr	r0, [r3, #32]
 800086c:	0149      	lsls	r1, r1, #5
 800086e:	4301      	orrs	r1, r0
 8000870:	6219      	str	r1, [r3, #32]
    pGPIO_USART->OSPEEDR &= ~(GPIO_OSPEEDER_OSPEEDR0 << (TxPin << 1));
 8000872:	2130      	movs	r1, #48	; 0x30
 8000874:	6898      	ldr	r0, [r3, #8]
 8000876:	4388      	bics	r0, r1
 8000878:	6098      	str	r0, [r3, #8]
    pGPIO_USART->OSPEEDR |= ((uint32_t)GPIO_Speed_Level_3 << (TxPin << 1));
 800087a:	6898      	ldr	r0, [r3, #8]
 800087c:	4308      	orrs	r0, r1
 800087e:	6098      	str	r0, [r3, #8]
    pGPIO_USART->OTYPER &= ~((GPIO_OTYPER_OT_0) << ((uint16_t)TxPin));
 8000880:	6858      	ldr	r0, [r3, #4]
 8000882:	43a8      	bics	r0, r5
 8000884:	6058      	str	r0, [r3, #4]
    pGPIO_USART->OTYPER |= (uint16_t)(((uint16_t)GPIO_OType_PP) << ((uint16_t)TxPin));
 8000886:	6858      	ldr	r0, [r3, #4]
 8000888:	6058      	str	r0, [r3, #4]
    pGPIO_USART->MODER &= ~(GPIO_MODER_MODER0 << (TxPin << 1));
 800088a:	6818      	ldr	r0, [r3, #0]
 800088c:	4388      	bics	r0, r1
 800088e:	6018      	str	r0, [r3, #0]
    pGPIO_USART->MODER |= ((uint32_t)GPIO_Mode_AF << (TxPin << 1));
 8000890:	2020      	movs	r0, #32
 8000892:	681d      	ldr	r5, [r3, #0]
 8000894:	4328      	orrs	r0, r5
 8000896:	6018      	str	r0, [r3, #0]
    pGPIO_USART->PUPDR &= ~(GPIO_PUPDR_PUPDR0 << (TxPin << 1));
 8000898:	68d8      	ldr	r0, [r3, #12]
    pGPIO_USART->PUPDR |= ((uint32_t)GPIO_PuPd_UP << (TxPin << 1));

    pGPIO_USART->OSPEEDR &= ~(GPIO_OSPEEDER_OSPEEDR0 << (RxPin << 1));
    pGPIO_USART->OSPEEDR |= ((uint32_t)GPIO_Speed_Level_3 << (RxPin << 1));
    pGPIO_USART->OTYPER &= ~((GPIO_OTYPER_OT_0) << ((uint16_t)RxPin));
 800089a:	2508      	movs	r5, #8
    pGPIO_USART->PUPDR &= ~(GPIO_PUPDR_PUPDR0 << (TxPin << 1));
 800089c:	4388      	bics	r0, r1
 800089e:	60d8      	str	r0, [r3, #12]
    pGPIO_USART->PUPDR |= ((uint32_t)GPIO_PuPd_UP << (TxPin << 1));
 80008a0:	68d8      	ldr	r0, [r3, #12]
 80008a2:	3920      	subs	r1, #32
 80008a4:	4301      	orrs	r1, r0
 80008a6:	60d9      	str	r1, [r3, #12]
    pGPIO_USART->OSPEEDR &= ~(GPIO_OSPEEDER_OSPEEDR0 << (RxPin << 1));
 80008a8:	21c0      	movs	r1, #192	; 0xc0
 80008aa:	6898      	ldr	r0, [r3, #8]
 80008ac:	4388      	bics	r0, r1
 80008ae:	6098      	str	r0, [r3, #8]
    pGPIO_USART->OSPEEDR |= ((uint32_t)GPIO_Speed_Level_3 << (RxPin << 1));
 80008b0:	6898      	ldr	r0, [r3, #8]
 80008b2:	4308      	orrs	r0, r1
 80008b4:	6098      	str	r0, [r3, #8]
    pGPIO_USART->OTYPER &= ~((GPIO_OTYPER_OT_0) << ((uint16_t)RxPin));
 80008b6:	6858      	ldr	r0, [r3, #4]
 80008b8:	43a8      	bics	r0, r5
 80008ba:	6058      	str	r0, [r3, #4]
    pGPIO_USART->OTYPER |= (uint16_t)(((uint16_t)GPIO_OType_PP) << ((uint16_t)RxPin));
 80008bc:	6858      	ldr	r0, [r3, #4]
 80008be:	6058      	str	r0, [r3, #4]
    pGPIO_USART->MODER &= ~(GPIO_MODER_MODER0 << (RxPin << 1));
 80008c0:	6818      	ldr	r0, [r3, #0]
 80008c2:	4388      	bics	r0, r1
 80008c4:	6018      	str	r0, [r3, #0]
    pGPIO_USART->MODER |= ((uint32_t)GPIO_Mode_AF << (RxPin << 1));
 80008c6:	2080      	movs	r0, #128	; 0x80
 80008c8:	681d      	ldr	r5, [r3, #0]
 80008ca:	4328      	orrs	r0, r5
 80008cc:	6018      	str	r0, [r3, #0]
    pGPIO_USART->PUPDR &= ~(GPIO_PUPDR_PUPDR0 << (RxPin << 1));
 80008ce:	68d8      	ldr	r0, [r3, #12]
 80008d0:	4388      	bics	r0, r1
 80008d2:	60d8      	str	r0, [r3, #12]
    pGPIO_USART->PUPDR |= ((uint32_t)GPIO_PuPd_UP << (RxPin << 1));
 80008d4:	68d8      	ldr	r0, [r3, #12]
 80008d6:	3980      	subs	r1, #128	; 0x80
 80008d8:	4301      	orrs	r1, r0
 80008da:	60d9      	str	r1, [r3, #12]

    RCC->APB2ENR |= RCC_APB2ENR_USART1EN;
 80008dc:	2380      	movs	r3, #128	; 0x80
 80008de:	6991      	ldr	r1, [r2, #24]
 80008e0:	01db      	lsls	r3, r3, #7
 80008e2:	430b      	orrs	r3, r1
 80008e4:	6193      	str	r3, [r2, #24]
    USART1->BRR = __USART_BRR(SystemCoreClock, Baud);
 80008e6:	4b18      	ldr	r3, [pc, #96]	; (8000948 <Usart1Init+0x130>)
 80008e8:	6821      	ldr	r1, [r4, #0]
 80008ea:	6818      	ldr	r0, [r3, #0]
 80008ec:	2319      	movs	r3, #25
 80008ee:	0089      	lsls	r1, r1, #2
 80008f0:	4358      	muls	r0, r3
 80008f2:	f7ff fbf1 	bl	80000d8 <__udivsi3>
 80008f6:	2164      	movs	r1, #100	; 0x64
 80008f8:	0005      	movs	r5, r0
 80008fa:	f7ff fc73 	bl	80001e4 <__aeabi_uidivmod>
 80008fe:	0108      	lsls	r0, r1, #4
 8000900:	3032      	adds	r0, #50	; 0x32
 8000902:	2164      	movs	r1, #100	; 0x64
 8000904:	f7ff fbe8 	bl	80000d8 <__udivsi3>
 8000908:	240f      	movs	r4, #15
 800090a:	2164      	movs	r1, #100	; 0x64
 800090c:	4004      	ands	r4, r0
 800090e:	0028      	movs	r0, r5
 8000910:	f7ff fbe2 	bl	80000d8 <__udivsi3>
    USART1->CR1 = USART_CR1_TE | USART_CR1_RE | USART_CR1_UE;  // 8N1
 8000914:	220d      	movs	r2, #13
    USART1->BRR = __USART_BRR(SystemCoreClock, Baud);
 8000916:	4b0d      	ldr	r3, [pc, #52]	; (800094c <Usart1Init+0x134>)
 8000918:	0100      	lsls	r0, r0, #4
 800091a:	4304      	orrs	r4, r0
 800091c:	60dc      	str	r4, [r3, #12]
    USART1->CR1 = USART_CR1_TE | USART_CR1_RE | USART_CR1_UE;  // 8N1
 800091e:	601a      	str	r2, [r3, #0]
}
 8000920:	bd70      	pop	{r4, r5, r6, pc}
            RxPin = BSP_TORQUE_UART_RX_PIN;
 8000922:	2003      	movs	r0, #3
 8000924:	6008      	str	r0, [r1, #0]
            Baud  = BSP_TORQUE_UART_BAUD;
 8000926:	490a      	ldr	r1, [pc, #40]	; (8000950 <Usart1Init+0x138>)
 8000928:	e78a      	b.n	8000840 <Usart1Init+0x28>
 800092a:	46c0      	nop			; (mov r8, r8)
 800092c:	40021000 	.word	0x40021000
 8000930:	20000094 	.word	0x20000094
 8000934:	20000090 	.word	0x20000090
 8000938:	2000008c 	.word	0x2000008c
 800093c:	2000009c 	.word	0x2000009c
 8000940:	fffff0ff 	.word	0xfffff0ff
 8000944:	ffff0fff 	.word	0xffff0fff
 8000948:	20000000 	.word	0x20000000
 800094c:	40013800 	.word	0x40013800
 8000950:	00112a88 	.word	0x00112a88

08000954 <Usart1Send>:
* @param[in] pTxData pointer to the data to be transmitted
* @param[in] size number of bytes
*
*******************************************************************************/
void Usart1Send(uint8_t *pTxData, const uint16_t size)
{
 8000954:	b530      	push	{r4, r5, lr}
    uint16_t i = 0U;
    while ( i < size)
 8000956:	2300      	movs	r3, #0
    {
        while ((USART1->ISR & USART_ISR_TXE) == 0)
 8000958:	2580      	movs	r5, #128	; 0x80
 800095a:	4a06      	ldr	r2, [pc, #24]	; (8000974 <Usart1Send+0x20>)
    while ( i < size)
 800095c:	b29c      	uxth	r4, r3
 800095e:	42a1      	cmp	r1, r4
 8000960:	d801      	bhi.n	8000966 <Usart1Send+0x12>
        {
            __NOP();
        }
        USART1->TDR = pTxData[i++];
    }
}
 8000962:	bd30      	pop	{r4, r5, pc}
            __NOP();
 8000964:	46c0      	nop			; (mov r8, r8)
        while ((USART1->ISR & USART_ISR_TXE) == 0)
 8000966:	69d4      	ldr	r4, [r2, #28]
 8000968:	422c      	tst	r4, r5
 800096a:	d0fb      	beq.n	8000964 <Usart1Send+0x10>
        USART1->TDR = pTxData[i++];
 800096c:	5cc4      	ldrb	r4, [r0, r3]
 800096e:	3301      	adds	r3, #1
 8000970:	8514      	strh	r4, [r2, #40]	; 0x28
 8000972:	e7f3      	b.n	800095c <Usart1Send+0x8>
 8000974:	40013800 	.word	0x40013800

08000978 <Usart1Recv>:
*             or
*             eFunction_Timeout if an timeout error occurs.
*
*******************************************************************************/
eFUNCTION_RETURN Usart1Recv(uint8_t *pRxData, const uint16_t size)
{
 8000978:	b510      	push	{r4, lr}
    eFUNCTION_RETURN retVal = eFunction_Timeout;

    if (USART1->ISR & USART_ISR_RXNE)
 800097a:	4c08      	ldr	r4, [pc, #32]	; (800099c <Usart1Recv+0x24>)
 800097c:	4b08      	ldr	r3, [pc, #32]	; (80009a0 <Usart1Recv+0x28>)
 800097e:	69e2      	ldr	r2, [r4, #28]
 8000980:	0692      	lsls	r2, r2, #26
 8000982:	d504      	bpl.n	800098e <Usart1Recv+0x16>
 8000984:	881a      	ldrh	r2, [r3, #0]
    {
        pRxData[index] = USART1->RDR;
 8000986:	8ca4      	ldrh	r4, [r4, #36]	; 0x24
 8000988:	5484      	strb	r4, [r0, r2]
        index++;
 800098a:	3201      	adds	r2, #1
 800098c:	801a      	strh	r2, [r3, #0]
    }

    if (index >= size)
 800098e:	881a      	ldrh	r2, [r3, #0]
    eFUNCTION_RETURN retVal = eFunction_Timeout;
 8000990:	2001      	movs	r0, #1
    if (index >= size)
 8000992:	428a      	cmp	r2, r1
 8000994:	d301      	bcc.n	800099a <Usart1Recv+0x22>
    {
        index = 0;
 8000996:	2000      	movs	r0, #0
 8000998:	8018      	strh	r0, [r3, #0]
        retVal = eFunction_Ok;
    }
    return retVal;
}
 800099a:	bd10      	pop	{r4, pc}
 800099c:	40013800 	.word	0x40013800
 80009a0:	20000098 	.word	0x20000098

080009a4 <Usart1Reset>:
* @returns    none
*
*******************************************************************************/
inline void Usart1Reset(void)
{
    index = 0;
 80009a4:	2200      	movs	r2, #0
 80009a6:	4b01      	ldr	r3, [pc, #4]	; (80009ac <Usart1Reset+0x8>)
 80009a8:	801a      	strh	r2, [r3, #0]
}
 80009aa:	4770      	bx	lr
 80009ac:	20000098 	.word	0x20000098

080009b0 <Reset_Handler>:
 80009b0:	480d      	ldr	r0, [pc, #52]	; (80009e8 <LoopForever+0x2>)
 80009b2:	4685      	mov	sp, r0
 80009b4:	2100      	movs	r1, #0
 80009b6:	e003      	b.n	80009c0 <LoopCopyDataInit>

080009b8 <CopyDataInit>:
 80009b8:	4b0c      	ldr	r3, [pc, #48]	; (80009ec <LoopForever+0x6>)
 80009ba:	585b      	ldr	r3, [r3, r1]
 80009bc:	5043      	str	r3, [r0, r1]
 80009be:	3104      	adds	r1, #4

080009c0 <LoopCopyDataInit>:
 80009c0:	480b      	ldr	r0, [pc, #44]	; (80009f0 <LoopForever+0xa>)
 80009c2:	4b0c      	ldr	r3, [pc, #48]	; (80009f4 <LoopForever+0xe>)
 80009c4:	1842      	adds	r2, r0, r1
 80009c6:	429a      	cmp	r2, r3
 80009c8:	d3f6      	bcc.n	80009b8 <CopyDataInit>
 80009ca:	4a0b      	ldr	r2, [pc, #44]	; (80009f8 <LoopForever+0x12>)
 80009cc:	e002      	b.n	80009d4 <LoopFillZerobss>

080009ce <FillZerobss>:
 80009ce:	2300      	movs	r3, #0
 80009d0:	6013      	str	r3, [r2, #0]
 80009d2:	3204      	adds	r2, #4

080009d4 <LoopFillZerobss>:
 80009d4:	4b09      	ldr	r3, [pc, #36]	; (80009fc <LoopForever+0x16>)
 80009d6:	429a      	cmp	r2, r3
 80009d8:	d3f9      	bcc.n	80009ce <FillZerobss>
 80009da:	f000 f813 	bl	8000a04 <SystemInit>
 80009de:	f000 f871 	bl	8000ac4 <__libc_init_array>
 80009e2:	f7ff fc05 	bl	80001f0 <main>

080009e6 <LoopForever>:
 80009e6:	e7fe      	b.n	80009e6 <LoopForever>
 80009e8:	20004000 	.word	0x20004000
 80009ec:	08000b3c 	.word	0x08000b3c
 80009f0:	20000000 	.word	0x20000000
 80009f4:	20000004 	.word	0x20000004
 80009f8:	20000004 	.word	0x20000004
 80009fc:	200000a0 	.word	0x200000a0

08000a00 <ADC1_COMP_IRQHandler>:
 8000a00:	e7fe      	b.n	8000a00 <ADC1_COMP_IRQHandler>
	...

08000a04 <SystemInit>:
  */
void SystemInit(void)
{
  /* Reset the RCC clock configuration to the default reset state ------------*/
  /* Set HSION bit */
  RCC->CR |= (uint32_t)0x00000001U;
 8000a04:	2101      	movs	r1, #1
 8000a06:	4b11      	ldr	r3, [pc, #68]	; (8000a4c <SystemInit+0x48>)
#if defined (STM32F051x8) || defined (STM32F058x8)
  /* Reset SW[1:0], HPRE[3:0], PPRE[2:0], ADCPRE and MCOSEL[2:0] bits */
  RCC->CFGR &= (uint32_t)0xF8FFB80CU;
#else
  /* Reset SW[1:0], HPRE[3:0], PPRE[2:0], ADCPRE, MCOSEL[2:0], MCOPRE[2:0] and PLLNODIV bits */
  RCC->CFGR &= (uint32_t)0x08FFB80CU;
 8000a08:	4811      	ldr	r0, [pc, #68]	; (8000a50 <SystemInit+0x4c>)
  RCC->CR |= (uint32_t)0x00000001U;
 8000a0a:	681a      	ldr	r2, [r3, #0]
 8000a0c:	430a      	orrs	r2, r1
 8000a0e:	601a      	str	r2, [r3, #0]
  RCC->CFGR &= (uint32_t)0x08FFB80CU;
 8000a10:	685a      	ldr	r2, [r3, #4]
 8000a12:	4002      	ands	r2, r0
 8000a14:	605a      	str	r2, [r3, #4]
#endif /* STM32F051x8 or STM32F058x8 */
  
  /* Reset HSEON, CSSON and PLLON bits */
  RCC->CR &= (uint32_t)0xFEF6FFFFU;
 8000a16:	681a      	ldr	r2, [r3, #0]
 8000a18:	480e      	ldr	r0, [pc, #56]	; (8000a54 <SystemInit+0x50>)
 8000a1a:	4002      	ands	r2, r0
 8000a1c:	601a      	str	r2, [r3, #0]

  /* Reset HSEBYP bit */
  RCC->CR &= (uint32_t)0xFFFBFFFFU;
 8000a1e:	681a      	ldr	r2, [r3, #0]
 8000a20:	480d      	ldr	r0, [pc, #52]	; (8000a58 <SystemInit+0x54>)
 8000a22:	4002      	ands	r2, r0
 8000a24:	601a      	str	r2, [r3, #0]

  /* Reset PLLSRC, PLLXTPRE and PLLMUL[3:0] bits */
  RCC->CFGR &= (uint32_t)0xFFC0FFFFU;
 8000a26:	685a      	ldr	r2, [r3, #4]
 8000a28:	480c      	ldr	r0, [pc, #48]	; (8000a5c <SystemInit+0x58>)
 8000a2a:	4002      	ands	r2, r0

  /* Reset PREDIV[3:0] bits */
  RCC->CFGR2 &= (uint32_t)0xFFFFFFF0U;
 8000a2c:	200f      	movs	r0, #15
  RCC->CFGR &= (uint32_t)0xFFC0FFFFU;
 8000a2e:	605a      	str	r2, [r3, #4]
  RCC->CFGR2 &= (uint32_t)0xFFFFFFF0U;
 8000a30:	6ada      	ldr	r2, [r3, #44]	; 0x2c
 8000a32:	4382      	bics	r2, r0
 8000a34:	62da      	str	r2, [r3, #44]	; 0x2c
#elif defined (STM32F091xC) || defined (STM32F098xx)
  /* Reset USART3SW[1:0], USART2SW[1:0], USART1SW[1:0], I2C1SW, CECSW and ADCSW bits */
  RCC->CFGR3 &= (uint32_t)0xFFF0FEACU;
#elif defined (STM32F030x6) || defined (STM32F030x8) || defined (STM32F031x6) || defined (STM32F038xx) || defined (STM32F030xC)
  /* Reset USART1SW[1:0], I2C1SW and ADCSW bits */
  RCC->CFGR3 &= (uint32_t)0xFFFFFEECU;
 8000a36:	6b1a      	ldr	r2, [r3, #48]	; 0x30
 8000a38:	4809      	ldr	r0, [pc, #36]	; (8000a60 <SystemInit+0x5c>)
 8000a3a:	4002      	ands	r2, r0
 8000a3c:	631a      	str	r2, [r3, #48]	; 0x30
#else
 #warning "No target selected"
#endif

  /* Reset HSI14 bit */
  RCC->CR2 &= (uint32_t)0xFFFFFFFEU;
 8000a3e:	6b5a      	ldr	r2, [r3, #52]	; 0x34
 8000a40:	438a      	bics	r2, r1
 8000a42:	635a      	str	r2, [r3, #52]	; 0x34

  /* Disable all interrupts */
  RCC->CIR = 0x00000000U;
 8000a44:	2200      	movs	r2, #0
 8000a46:	609a      	str	r2, [r3, #8]

}
 8000a48:	4770      	bx	lr
 8000a4a:	46c0      	nop			; (mov r8, r8)
 8000a4c:	40021000 	.word	0x40021000
 8000a50:	08ffb80c 	.word	0x08ffb80c
 8000a54:	fef6ffff 	.word	0xfef6ffff
 8000a58:	fffbffff 	.word	0xfffbffff
 8000a5c:	ffc0ffff 	.word	0xffc0ffff
 8000a60:	fffffeec 	.word	0xfffffeec

08000a64 <SystemCoreClockUpdate>:
void SystemCoreClockUpdate (void)
{
  uint32_t tmp = 0, pllmull = 0, pllsource = 0, predivfactor = 0;

  /* Get SYSCLK source -------------------------------------------------------*/
  tmp = RCC->CFGR & RCC_CFGR_SWS;
 8000a64:	220c      	movs	r2, #12
{
 8000a66:	b570      	push	{r4, r5, r6, lr}
  tmp = RCC->CFGR & RCC_CFGR_SWS;
 8000a68:	4d11      	ldr	r5, [pc, #68]	; (8000ab0 <SystemCoreClockUpdate+0x4c>)
 8000a6a:	4e12      	ldr	r6, [pc, #72]	; (8000ab4 <SystemCoreClockUpdate+0x50>)
 8000a6c:	686b      	ldr	r3, [r5, #4]
 8000a6e:	4013      	ands	r3, r2

  switch (tmp)
 8000a70:	2b08      	cmp	r3, #8
 8000a72:	d00a      	beq.n	8000a8a <SystemCoreClockUpdate+0x26>
  {
    case RCC_CFGR_SWS_HSI:  /* HSI used as system clock */
      SystemCoreClock = HSI_VALUE;
 8000a74:	4b10      	ldr	r3, [pc, #64]	; (8000ab8 <SystemCoreClockUpdate+0x54>)
 8000a76:	6033      	str	r3, [r6, #0]
      SystemCoreClock = HSI_VALUE;
      break;
  }
  /* Compute HCLK clock frequency ----------------*/
  /* Get HCLK prescaler */
  tmp = AHBPrescTable[((RCC->CFGR & RCC_CFGR_HPRE) >> 4)];
 8000a78:	686b      	ldr	r3, [r5, #4]
 8000a7a:	4a10      	ldr	r2, [pc, #64]	; (8000abc <SystemCoreClockUpdate+0x58>)
 8000a7c:	061b      	lsls	r3, r3, #24
 8000a7e:	0f1b      	lsrs	r3, r3, #28
 8000a80:	5cd3      	ldrb	r3, [r2, r3]
  /* HCLK clock frequency */
  SystemCoreClock >>= tmp;
 8000a82:	6832      	ldr	r2, [r6, #0]
 8000a84:	40da      	lsrs	r2, r3
 8000a86:	6032      	str	r2, [r6, #0]
}
 8000a88:	bd70      	pop	{r4, r5, r6, pc}
      pllmull = ( pllmull >> 18) + 2;
 8000a8a:	230f      	movs	r3, #15
      pllmull = RCC->CFGR & RCC_CFGR_PLLMUL;
 8000a8c:	686c      	ldr	r4, [r5, #4]
      pllsource = RCC->CFGR & RCC_CFGR_PLLSRC;
 8000a8e:	686a      	ldr	r2, [r5, #4]
      pllmull = ( pllmull >> 18) + 2;
 8000a90:	0ca4      	lsrs	r4, r4, #18
 8000a92:	401c      	ands	r4, r3
 8000a94:	3402      	adds	r4, #2
      predivfactor = (RCC->CFGR2 & RCC_CFGR2_PREDIV) + 1;
 8000a96:	6ae9      	ldr	r1, [r5, #44]	; 0x2c
      if (pllsource == RCC_CFGR_PLLSRC_HSE_PREDIV)
 8000a98:	03d2      	lsls	r2, r2, #15
 8000a9a:	d507      	bpl.n	8000aac <SystemCoreClockUpdate+0x48>
      predivfactor = (RCC->CFGR2 & RCC_CFGR2_PREDIV) + 1;
 8000a9c:	4019      	ands	r1, r3
 8000a9e:	3101      	adds	r1, #1
        SystemCoreClock = (HSE_VALUE/predivfactor) * pllmull;
 8000aa0:	4805      	ldr	r0, [pc, #20]	; (8000ab8 <SystemCoreClockUpdate+0x54>)
 8000aa2:	f7ff fb19 	bl	80000d8 <__udivsi3>
        SystemCoreClock = (HSI_VALUE >> 1) * pllmull;
 8000aa6:	4344      	muls	r4, r0
 8000aa8:	6034      	str	r4, [r6, #0]
 8000aaa:	e7e5      	b.n	8000a78 <SystemCoreClockUpdate+0x14>
 8000aac:	4804      	ldr	r0, [pc, #16]	; (8000ac0 <SystemCoreClockUpdate+0x5c>)
 8000aae:	e7fa      	b.n	8000aa6 <SystemCoreClockUpdate+0x42>
 8000ab0:	40021000 	.word	0x40021000
 8000ab4:	20000000 	.word	0x20000000
 8000ab8:	007a1200 	.word	0x007a1200
 8000abc:	08000b12 	.word	0x08000b12
 8000ac0:	003d0900 	.word	0x003d0900

08000ac4 <__libc_init_array>:
 8000ac4:	b570      	push	{r4, r5, r6, lr}
 8000ac6:	4e0d      	ldr	r6, [pc, #52]	; (8000afc <__libc_init_array+0x38>)
 8000ac8:	4d0d      	ldr	r5, [pc, #52]	; (8000b00 <__libc_init_array+0x3c>)
 8000aca:	1bad      	subs	r5, r5, r6
 8000acc:	10ad      	asrs	r5, r5, #2
 8000ace:	d006      	beq.n	8000ade <__libc_init_array+0x1a>
 8000ad0:	2400      	movs	r4, #0
 8000ad2:	00a3      	lsls	r3, r4, #2
 8000ad4:	58f3      	ldr	r3, [r6, r3]
 8000ad6:	3401      	adds	r4, #1
 8000ad8:	4798      	blx	r3
 8000ada:	42a5      	cmp	r5, r4
 8000adc:	d1f9      	bne.n	8000ad2 <__libc_init_array+0xe>
 8000ade:	f000 f821 	bl	8000b24 <_init>
 8000ae2:	4e08      	ldr	r6, [pc, #32]	; (8000b04 <__libc_init_array+0x40>)
 8000ae4:	4d08      	ldr	r5, [pc, #32]	; (8000b08 <__libc_init_array+0x44>)
 8000ae6:	1bad      	subs	r5, r5, r6
 8000ae8:	10ad      	asrs	r5, r5, #2
 8000aea:	d006      	beq.n	8000afa <__libc_init_array+0x36>
 8000aec:	2400      	movs	r4, #0
 8000aee:	00a3      	lsls	r3, r4, #2
 8000af0:	58f3      	ldr	r3, [r6, r3]
 8000af2:	3401      	adds	r4, #1
 8000af4:	4798      	blx	r3
 8000af6:	42a5      	cmp	r5, r4
 8000af8:	d1f9      	bne.n	8000aee <__libc_init_array+0x2a>
 8000afa:	bd70      	pop	{r4, r5, r6, pc}
	...
 8000b0c:	6c6c6548 	.word	0x6c6c6548
 8000b10:	006f      	.short	0x006f

08000b12 <AHBPrescTable>:
	...
 8000b1a:	0201 0403 0706 0908 0000                    ..........

08000b24 <_init>:
 8000b24:	b5f8      	push	{r3, r4, r5, r6, r7, lr}
 8000b26:	46c0      	nop			; (mov r8, r8)
 8000b28:	bcf8      	pop	{r3, r4, r5, r6, r7}
 8000b2a:	bc08      	pop	{r3}
 8000b2c:	469e      	mov	lr, r3
 8000b2e:	4770      	bx	lr

08000b30 <_fini>:
 8000b30:	b5f8      	push	{r3, r4, r5, r6, r7, lr}
 8000b32:	46c0      	nop			; (mov r8, r8)
 8000b34:	bcf8      	pop	{r3, r4, r5, r6, r7}
 8000b36:	bc08      	pop	{r3}
 8000b38:	469e      	mov	lr, r3
 8000b3a:	4770      	bx	lr
